; Listing generated by Microsoft (R) Optimizing Compiler Version 19.44.35214.0 

include listing.inc

INCLUDELIB MSVCRT
INCLUDELIB OLDNAMES

PUBLIC	_Avx2WmemEnabledWeakValue
;	COMDAT _Avx2WmemEnabledWeakValue
_BSS	SEGMENT
_Avx2WmemEnabledWeakValue DD 01H DUP (?)
_BSS	ENDS
PUBLIC	?now@steady_clock@chrono@std@@SA?AV?$time_point@Usteady_clock@chrono@std@@V?$duration@_JU?$ratio@$00$0DLJKMKAA@@std@@@23@@23@XZ ; std::chrono::steady_clock::now
PUBLIC	main
PUBLIC	??$?6U?$char_traits@D@std@@@std@@YAAEAV?$basic_ostream@DU?$char_traits@D@std@@@0@AEAV10@PEBD@Z ; std::operator<<<std::char_traits<char> >
PUBLIC	??$endl@DU?$char_traits@D@std@@@std@@YAAEAV?$basic_ostream@DU?$char_traits@D@std@@@0@AEAV10@@Z ; std::endl<char,std::char_traits<char> >
PUBLIC	??$sleep_for@_JU?$ratio@$00$0DOI@@std@@@this_thread@std@@YAXAEBV?$duration@_JU?$ratio@$00$0DOI@@std@@@chrono@1@@Z ; std::this_thread::sleep_for<__int64,std::ratio<1,1000> >
PUBLIC	??1_Sentry_base@?$basic_ostream@DU?$char_traits@D@std@@@std@@QEAA@XZ ; std::basic_ostream<char,std::char_traits<char> >::_Sentry_base::~_Sentry_base
PUBLIC	??1sentry@?$basic_ostream@DU?$char_traits@D@std@@@std@@QEAA@XZ ; std::basic_ostream<char,std::char_traits<char> >::sentry::~sentry
PUBLIC	??$_To_absolute_time@_JU?$ratio@$00$0DOI@@std@@@std@@YA?A_PAEBV?$duration@_JU?$ratio@$00$0DOI@@std@@@chrono@0@@Z ; std::_To_absolute_time<__int64,std::ratio<1,1000> >
PUBLIC	??$sleep_until@Usteady_clock@chrono@std@@V?$duration@_JU?$ratio@$00$0DLJKMKAA@@std@@@23@@this_thread@std@@YAXAEBV?$time_point@Usteady_clock@chrono@std@@V?$duration@_JU?$ratio@$00$0DLJKMKAA@@std@@@23@@chrono@1@@Z ; std::this_thread::sleep_until<std::chrono::steady_clock,std::chrono::duration<__int64,std::ratio<1,1000000000> > >
PUBLIC	??$_Clamped_rel_time_ms_count@V?$duration@_JU?$ratio@$00$0DLJKMKAA@@std@@@chrono@std@@@std@@YA?AU_Clamped_rel_time_ms_count_result@0@AEBV?$duration@_JU?$ratio@$00$0DLJKMKAA@@std@@@chrono@0@@Z ; std::_Clamped_rel_time_ms_count<std::chrono::duration<__int64,std::ratio<1,1000000000> > >
PUBLIC	??_C@_06LAMHBIA@Durden@				; `string'
PUBLIC	??_C@_05INJOKMGD@Angel@				; `string'
PUBLIC	??_C@_0BD@GFMLOFIM@?5?$DN?$DN?$DN?$DN?$DN?$DN?$DN?$DN?$DN?$DN?$DN?$DN?$DN?$DN?$DN?$DN?$DN@ ; `string'
PUBLIC	??_C@_0BJ@NGPLFLNG@?$DN?$DN?$DN?$DN?$DN?$DN?$DN?$DN?$DN?$DN?$DN?$DN?$DN?$DN?$DN?$DN?$DN?5Round?5@ ; `string'
PUBLIC	??_C@_0CO@OOAMJGKN@?$DN?$DN?$DN?$DN?$DN?$DN?$DN?$DN?$DN?$DN?$DN?$DN?$DN?$DN?$DN?$DN?$DN?5GAME?5OVER?5?$DN?$DN?$DN@ ; `string'
PUBLIC	??_C@_0BB@MCNOPMIP@Friendship?5wins?$CB@	; `string'
PUBLIC	??_C@_0O@CICABFFP@?5is?5dead?4?4?4?4?4@		; `string'
PUBLIC	??_C@_08CKOPNBH@?5wins?$CB?$CB?$CB@		; `string'
EXTRN	__std_terminate:PROC
EXTRN	?uncaught_exception@std@@YA_NXZ:PROC		; std::uncaught_exception
EXTRN	_Query_perf_counter:PROC
EXTRN	_Query_perf_frequency:PROC
EXTRN	_Thrd_sleep_for:PROC
EXTRN	__imp_?good@ios_base@std@@QEBA_NXZ:PROC
EXTRN	__imp_?flags@ios_base@std@@QEBAHXZ:PROC
EXTRN	__imp_?width@ios_base@std@@QEBA_JXZ:PROC
EXTRN	__imp_?width@ios_base@std@@QEAA_J_J@Z:PROC
EXTRN	__imp_?sputc@?$basic_streambuf@DU?$char_traits@D@std@@@std@@QEAAHD@Z:PROC
EXTRN	__imp_?sputn@?$basic_streambuf@DU?$char_traits@D@std@@@std@@QEAA_JPEBD_J@Z:PROC
EXTRN	__imp_?setstate@?$basic_ios@DU?$char_traits@D@std@@@std@@QEAAXH_N@Z:PROC
EXTRN	__imp_?tie@?$basic_ios@DU?$char_traits@D@std@@@std@@QEBAPEAV?$basic_ostream@DU?$char_traits@D@std@@@2@XZ:PROC
EXTRN	__imp_?rdbuf@?$basic_ios@DU?$char_traits@D@std@@@std@@QEBAPEAV?$basic_streambuf@DU?$char_traits@D@std@@@2@XZ:PROC
EXTRN	__imp_?fill@?$basic_ios@DU?$char_traits@D@std@@@std@@QEBADXZ:PROC
EXTRN	__imp_?widen@?$basic_ios@DU?$char_traits@D@std@@@std@@QEBADD@Z:PROC
EXTRN	__imp_?_Osfx@?$basic_ostream@DU?$char_traits@D@std@@@std@@QEAAXXZ:PROC
EXTRN	__imp_??6?$basic_ostream@DU?$char_traits@D@std@@@std@@QEAAAEAV01@P6AAEAV01@AEAV01@@Z@Z:PROC
EXTRN	__imp_??6?$basic_ostream@DU?$char_traits@D@std@@@std@@QEAAAEAV01@H@Z:PROC
EXTRN	__imp_?put@?$basic_ostream@DU?$char_traits@D@std@@@std@@QEAAAEAV12@D@Z:PROC
EXTRN	__imp_?flush@?$basic_ostream@DU?$char_traits@D@std@@@std@@QEAAAEAV12@XZ:PROC
EXTRN	__imp_?get@?$basic_istream@DU?$char_traits@D@std@@@std@@QEAAHXZ:PROC
EXTRN	__imp_??0Character@@QEAA@PEBD@Z:PROC
EXTRN	__imp_??1Character@@QEAA@XZ:PROC
EXTRN	__imp_?name@Character@@QEBAPEBDXZ:PROC
EXTRN	__imp_?dead@Character@@QEBA_NXZ:PROC
EXTRN	__imp_?attack@Character@@QEAA_NAEAV1@@Z:PROC
EXTRN	??1Character@@QEAA@XZ:PROC			; Character::~Character
EXTRN	__CxxFrameHandler4:PROC
EXTRN	strlen:PROC
EXTRN	__imp_?cin@std@@3V?$basic_istream@DU?$char_traits@D@std@@@1@A:BYTE
EXTRN	__imp_?cout@std@@3V?$basic_ostream@DU?$char_traits@D@std@@@1@A:BYTE
;	COMDAT pdata
pdata	SEGMENT
$pdata$?now@steady_clock@chrono@std@@SA?AV?$time_point@Usteady_clock@chrono@std@@V?$duration@_JU?$ratio@$00$0DLJKMKAA@@std@@@23@@23@XZ DD imagerel $LN32
	DD	imagerel $LN32+216
	DD	imagerel $unwind$?now@steady_clock@chrono@std@@SA?AV?$time_point@Usteady_clock@chrono@std@@V?$duration@_JU?$ratio@$00$0DLJKMKAA@@std@@@23@@23@XZ
pdata	ENDS
;	COMDAT pdata
pdata	SEGMENT
$pdata$main DD	imagerel $LN208
	DD	imagerel $LN208+850
	DD	imagerel $unwind$main
pdata	ENDS
;	COMDAT pdata
pdata	SEGMENT
$pdata$??$?6U?$char_traits@D@std@@@std@@YAAEAV?$basic_ostream@DU?$char_traits@D@std@@@0@AEAV10@PEBD@Z DD imagerel $LN72
	DD	imagerel $LN72+612
	DD	imagerel $unwind$??$?6U?$char_traits@D@std@@@std@@YAAEAV?$basic_ostream@DU?$char_traits@D@std@@@0@AEAV10@PEBD@Z
pdata	ENDS
;	COMDAT pdata
pdata	SEGMENT
$pdata$?catch$4@?0???$?6U?$char_traits@D@std@@@std@@YAAEAV?$basic_ostream@DU?$char_traits@D@std@@@0@AEAV10@PEBD@Z@4HA DD imagerel ?catch$4@?0???$?6U?$char_traits@D@std@@@std@@YAAEAV?$basic_ostream@DU?$char_traits@D@std@@@0@AEAV10@PEBD@Z@4HA
	DD	imagerel ?catch$4@?0???$?6U?$char_traits@D@std@@@std@@YAAEAV?$basic_ostream@DU?$char_traits@D@std@@@0@AEAV10@PEBD@Z@4HA+59
	DD	imagerel $unwind$?catch$4@?0???$?6U?$char_traits@D@std@@@std@@YAAEAV?$basic_ostream@DU?$char_traits@D@std@@@0@AEAV10@PEBD@Z@4HA
pdata	ENDS
;	COMDAT pdata
pdata	SEGMENT
$pdata$??$endl@DU?$char_traits@D@std@@@std@@YAAEAV?$basic_ostream@DU?$char_traits@D@std@@@0@AEAV10@@Z DD imagerel $LN4
	DD	imagerel $LN4+57
	DD	imagerel $unwind$??$endl@DU?$char_traits@D@std@@@std@@YAAEAV?$basic_ostream@DU?$char_traits@D@std@@@0@AEAV10@@Z
pdata	ENDS
;	COMDAT pdata
pdata	SEGMENT
$pdata$??$sleep_for@_JU?$ratio@$00$0DOI@@std@@@this_thread@std@@YAXAEBV?$duration@_JU?$ratio@$00$0DOI@@std@@@chrono@1@@Z DD imagerel $LN189
	DD	imagerel $LN189+354
	DD	imagerel $unwind$??$sleep_for@_JU?$ratio@$00$0DOI@@std@@@this_thread@std@@YAXAEBV?$duration@_JU?$ratio@$00$0DOI@@std@@@chrono@1@@Z
pdata	ENDS
;	COMDAT pdata
pdata	SEGMENT
$pdata$??0_Sentry_base@?$basic_ostream@DU?$char_traits@D@std@@@std@@QEAA@AEAV12@@Z DD imagerel $LN7
	DD	imagerel $LN7+51
	DD	imagerel $unwind$??0_Sentry_base@?$basic_ostream@DU?$char_traits@D@std@@@std@@QEAA@AEAV12@@Z
pdata	ENDS
;	COMDAT pdata
pdata	SEGMENT
$pdata$??1_Sentry_base@?$basic_ostream@DU?$char_traits@D@std@@@std@@QEAA@XZ DD imagerel $LN7
	DD	imagerel $LN7+46
	DD	imagerel $unwind$??1_Sentry_base@?$basic_ostream@DU?$char_traits@D@std@@@std@@QEAA@XZ
pdata	ENDS
;	COMDAT pdata
pdata	SEGMENT
$pdata$??0sentry@?$basic_ostream@DU?$char_traits@D@std@@@std@@QEAA@AEAV12@@Z DD imagerel $LN12
	DD	imagerel $LN12+148
	DD	imagerel $unwind$??0sentry@?$basic_ostream@DU?$char_traits@D@std@@@std@@QEAA@AEAV12@@Z
pdata	ENDS
;	COMDAT pdata
pdata	SEGMENT
$pdata$??1sentry@?$basic_ostream@DU?$char_traits@D@std@@@std@@QEAA@XZ DD imagerel $LN14
	DD	imagerel $LN14+71
	DD	imagerel $unwind$??1sentry@?$basic_ostream@DU?$char_traits@D@std@@@std@@QEAA@XZ
pdata	ENDS
;	COMDAT pdata
pdata	SEGMENT
$pdata$??$_To_absolute_time@_JU?$ratio@$00$0DOI@@std@@@std@@YA?A_PAEBV?$duration@_JU?$ratio@$00$0DOI@@std@@@chrono@0@@Z DD imagerel $LN69
	DD	imagerel $LN69+107
	DD	imagerel $unwind$??$_To_absolute_time@_JU?$ratio@$00$0DOI@@std@@@std@@YA?A_PAEBV?$duration@_JU?$ratio@$00$0DOI@@std@@@chrono@0@@Z
pdata	ENDS
;	COMDAT pdata
pdata	SEGMENT
$pdata$??$sleep_until@Usteady_clock@chrono@std@@V?$duration@_JU?$ratio@$00$0DLJKMKAA@@std@@@23@@this_thread@std@@YAXAEBV?$time_point@Usteady_clock@chrono@std@@V?$duration@_JU?$ratio@$00$0DLJKMKAA@@std@@@23@@chrono@1@@Z DD imagerel $LN120
	DD	imagerel $LN120+314
	DD	imagerel $unwind$??$sleep_until@Usteady_clock@chrono@std@@V?$duration@_JU?$ratio@$00$0DLJKMKAA@@std@@@23@@this_thread@std@@YAXAEBV?$time_point@Usteady_clock@chrono@std@@V?$duration@_JU?$ratio@$00$0DLJKMKAA@@std@@@23@@chrono@1@@Z
pdata	ENDS
;	COMDAT ??_C@_08CKOPNBH@?5wins?$CB?$CB?$CB@
CONST	SEGMENT
??_C@_08CKOPNBH@?5wins?$CB?$CB?$CB@ DB ' wins!!!', 00H	; `string'
CONST	ENDS
;	COMDAT ??_C@_0O@CICABFFP@?5is?5dead?4?4?4?4?4@
CONST	SEGMENT
??_C@_0O@CICABFFP@?5is?5dead?4?4?4?4?4@ DB ' is dead.....', 00H ; `string'
CONST	ENDS
;	COMDAT ??_C@_0BB@MCNOPMIP@Friendship?5wins?$CB@
CONST	SEGMENT
??_C@_0BB@MCNOPMIP@Friendship?5wins?$CB@ DB 'Friendship wins!', 00H ; `string'
CONST	ENDS
;	COMDAT ??_C@_0CO@OOAMJGKN@?$DN?$DN?$DN?$DN?$DN?$DN?$DN?$DN?$DN?$DN?$DN?$DN?$DN?$DN?$DN?$DN?$DN?5GAME?5OVER?5?$DN?$DN?$DN@
CONST	SEGMENT
??_C@_0CO@OOAMJGKN@?$DN?$DN?$DN?$DN?$DN?$DN?$DN?$DN?$DN?$DN?$DN?$DN?$DN?$DN?$DN?$DN?$DN?5GAME?5OVER?5?$DN?$DN?$DN@ DB '='
	DB	'================ GAME OVER =================', 00H ; `string'
CONST	ENDS
;	COMDAT ??_C@_0BJ@NGPLFLNG@?$DN?$DN?$DN?$DN?$DN?$DN?$DN?$DN?$DN?$DN?$DN?$DN?$DN?$DN?$DN?$DN?$DN?5Round?5@
CONST	SEGMENT
??_C@_0BJ@NGPLFLNG@?$DN?$DN?$DN?$DN?$DN?$DN?$DN?$DN?$DN?$DN?$DN?$DN?$DN?$DN?$DN?$DN?$DN?5Round?5@ DB '='
	DB	'================ Round ', 00H		; `string'
CONST	ENDS
;	COMDAT ??_C@_0BD@GFMLOFIM@?5?$DN?$DN?$DN?$DN?$DN?$DN?$DN?$DN?$DN?$DN?$DN?$DN?$DN?$DN?$DN?$DN?$DN@
CONST	SEGMENT
??_C@_0BD@GFMLOFIM@?5?$DN?$DN?$DN?$DN?$DN?$DN?$DN?$DN?$DN?$DN?$DN?$DN?$DN?$DN?$DN?$DN?$DN@ DB ' '
	DB	'=================', 00H			; `string'
CONST	ENDS
;	COMDAT ??_C@_05INJOKMGD@Angel@
CONST	SEGMENT
??_C@_05INJOKMGD@Angel@ DB 'Angel', 00H			; `string'
CONST	ENDS
;	COMDAT ??_C@_06LAMHBIA@Durden@
CONST	SEGMENT
??_C@_06LAMHBIA@Durden@ DB 'Durden', 00H		; `string'
CONST	ENDS
;	COMDAT xdata
xdata	SEGMENT
$unwind$??$sleep_until@Usteady_clock@chrono@std@@V?$duration@_JU?$ratio@$00$0DLJKMKAA@@std@@@23@@this_thread@std@@YAXAEBV?$time_point@Usteady_clock@chrono@std@@V?$duration@_JU?$ratio@$00$0DLJKMKAA@@std@@@23@@chrono@1@@Z DD 0a1a01H
	DD	09741aH
	DD	08641aH
	DD	07541aH
	DD	06341aH
	DD	0e016321aH
xdata	ENDS
;	COMDAT xdata
xdata	SEGMENT
$unwind$??$_To_absolute_time@_JU?$ratio@$00$0DOI@@std@@@std@@YA?A_PAEBV?$duration@_JU?$ratio@$00$0DOI@@std@@@chrono@0@@Z DD 040a01H
	DD	07340aH
	DD	07006320aH
xdata	ENDS
;	COMDAT xdata
xdata	SEGMENT
$ip2state$??1sentry@?$basic_ostream@DU?$char_traits@D@std@@@std@@QEAA@XZ DB 02H
	DB	'|'
	DB	02H
xdata	ENDS
;	COMDAT xdata
xdata	SEGMENT
$stateUnwindMap$??1sentry@?$basic_ostream@DU?$char_traits@D@std@@@std@@QEAA@XZ DB 02H
	DB	0eH
	DD	imagerel __std_terminate
xdata	ENDS
;	COMDAT xdata
xdata	SEGMENT
$cppxdata$??1sentry@?$basic_ostream@DU?$char_traits@D@std@@@std@@QEAA@XZ DB 068H
	DD	imagerel $stateUnwindMap$??1sentry@?$basic_ostream@DU?$char_traits@D@std@@@std@@QEAA@XZ
	DD	imagerel $ip2state$??1sentry@?$basic_ostream@DU?$char_traits@D@std@@@std@@QEAA@XZ
xdata	ENDS
;	COMDAT xdata
xdata	SEGMENT
$unwind$??1sentry@?$basic_ostream@DU?$char_traits@D@std@@@std@@QEAA@XZ DD 020619H
	DD	030023206H
	DD	imagerel __CxxFrameHandler4
	DD	imagerel $cppxdata$??1sentry@?$basic_ostream@DU?$char_traits@D@std@@@std@@QEAA@XZ
xdata	ENDS
;	COMDAT xdata
xdata	SEGMENT
$ip2state$??0sentry@?$basic_ostream@DU?$char_traits@D@std@@@std@@QEAA@AEAV12@@Z DB 04H
	DB	'f'
	DB	00H
	DB	'l'
	DB	02H
xdata	ENDS
;	COMDAT xdata
xdata	SEGMENT
$stateUnwindMap$??0sentry@?$basic_ostream@DU?$char_traits@D@std@@@std@@QEAA@AEAV12@@Z DB 02H
	DB	0cH
	DD	imagerel ??1_Sentry_base@?$basic_ostream@DU?$char_traits@D@std@@@std@@QEAA@XZ
	DB	060H
xdata	ENDS
;	COMDAT xdata
xdata	SEGMENT
$cppxdata$??0sentry@?$basic_ostream@DU?$char_traits@D@std@@@std@@QEAA@AEAV12@@Z DB 028H
	DD	imagerel $stateUnwindMap$??0sentry@?$basic_ostream@DU?$char_traits@D@std@@@std@@QEAA@AEAV12@@Z
	DD	imagerel $ip2state$??0sentry@?$basic_ostream@DU?$char_traits@D@std@@@std@@QEAA@AEAV12@@Z
xdata	ENDS
;	COMDAT xdata
xdata	SEGMENT
$unwind$??0sentry@?$basic_ostream@DU?$char_traits@D@std@@@std@@QEAA@AEAV12@@Z DD 040f11H
	DD	07340fH
	DD	0700b320fH
	DD	imagerel __CxxFrameHandler4
	DD	imagerel $cppxdata$??0sentry@?$basic_ostream@DU?$char_traits@D@std@@@std@@QEAA@AEAV12@@Z
xdata	ENDS
;	COMDAT xdata
xdata	SEGMENT
$ip2state$??1_Sentry_base@?$basic_ostream@DU?$char_traits@D@std@@@std@@QEAA@XZ DB 02H
	DB	'L'
	DB	00H
xdata	ENDS
;	COMDAT xdata
xdata	SEGMENT
$cppxdata$??1_Sentry_base@?$basic_ostream@DU?$char_traits@D@std@@@std@@QEAA@XZ DB 060H
	DD	imagerel $ip2state$??1_Sentry_base@?$basic_ostream@DU?$char_traits@D@std@@@std@@QEAA@XZ
xdata	ENDS
;	COMDAT xdata
xdata	SEGMENT
$unwind$??1_Sentry_base@?$basic_ostream@DU?$char_traits@D@std@@@std@@QEAA@XZ DD 010419H
	DD	04204H
	DD	imagerel __CxxFrameHandler4
	DD	imagerel $cppxdata$??1_Sentry_base@?$basic_ostream@DU?$char_traits@D@std@@@std@@QEAA@XZ
xdata	ENDS
;	COMDAT xdata
xdata	SEGMENT
$unwind$??0_Sentry_base@?$basic_ostream@DU?$char_traits@D@std@@@std@@QEAA@AEAV12@@Z DD 020601H
	DD	030023206H
xdata	ENDS
;	COMDAT xdata
xdata	SEGMENT
$unwind$??$sleep_for@_JU?$ratio@$00$0DOI@@std@@@this_thread@std@@YAXAEBV?$duration@_JU?$ratio@$00$0DOI@@std@@@chrono@1@@Z DD 081201H
	DD	0a5412H
	DD	093412H
	DD	0e00e3212H
	DD	0600b700cH
xdata	ENDS
;	COMDAT xdata
xdata	SEGMENT
$unwind$??$endl@DU?$char_traits@D@std@@@std@@YAAEAV?$basic_ostream@DU?$char_traits@D@std@@@0@AEAV10@@Z DD 020601H
	DD	030023206H
xdata	ENDS
;	COMDAT voltbl
voltbl	SEGMENT
_volmd	DB	00H
voltbl	ENDS
;	COMDAT xdata
xdata	SEGMENT
$unwind$?catch$4@?0???$?6U?$char_traits@D@std@@@std@@YAAEAV?$basic_ostream@DU?$char_traits@D@std@@@0@AEAV10@PEBD@Z@4HA DD 020a01H
	DD	05006320aH
xdata	ENDS
;	COMDAT xdata
xdata	SEGMENT
$ip2state$??$?6U?$char_traits@D@std@@@std@@YAAEAV?$basic_ostream@DU?$char_traits@D@std@@@0@AEAV10@PEBD@Z DB 0cH
	DB	085H, 02H
	DB	00H
	DB	't'
	DB	02H
	DB	0f4H
	DB	06H
	DB	']', 02H
	DB	04H
	DB	'P'
	DB	00H
	DB	'd'
	DB	0aH
xdata	ENDS
;	COMDAT xdata
xdata	SEGMENT
$handlerMap$??$?6U?$char_traits@D@std@@@std@@YAAEAV?$basic_ostream@DU?$char_traits@D@std@@@0@AEAV10@PEBD@Z DB 02H
	DB	011H
	DB	080H
	DD	imagerel ?catch$4@?0???$?6U?$char_traits@D@std@@@std@@YAAEAV?$basic_ostream@DU?$char_traits@D@std@@@0@AEAV10@PEBD@Z@4HA
	DB	0b9H, 07H
xdata	ENDS
;	COMDAT xdata
xdata	SEGMENT
$tryMap$??$?6U?$char_traits@D@std@@@std@@YAAEAV?$basic_ostream@DU?$char_traits@D@std@@@0@AEAV10@PEBD@Z DB 02H
	DB	04H
	DB	04H
	DB	06H
	DD	imagerel $handlerMap$??$?6U?$char_traits@D@std@@@std@@YAAEAV?$basic_ostream@DU?$char_traits@D@std@@@0@AEAV10@PEBD@Z
xdata	ENDS
;	COMDAT xdata
xdata	SEGMENT
$stateUnwindMap$??$?6U?$char_traits@D@std@@@std@@YAAEAV?$basic_ostream@DU?$char_traits@D@std@@@0@AEAV10@PEBD@Z DB 0aH
	DB	0aH
	DD	imagerel ??1_Sentry_base@?$basic_ostream@DU?$char_traits@D@std@@@std@@QEAA@XZ
	DB	040H
	DB	03aH
	DD	imagerel ??1sentry@?$basic_ostream@DU?$char_traits@D@std@@@std@@QEAA@XZ
	DB	040H
	DB	030H
	DB	038H
	DB	07eH
	DD	imagerel __std_terminate
xdata	ENDS
;	COMDAT xdata
xdata	SEGMENT
$cppxdata$??$?6U?$char_traits@D@std@@@std@@YAAEAV?$basic_ostream@DU?$char_traits@D@std@@@0@AEAV10@PEBD@Z DB 038H
	DD	imagerel $stateUnwindMap$??$?6U?$char_traits@D@std@@@std@@YAAEAV?$basic_ostream@DU?$char_traits@D@std@@@0@AEAV10@PEBD@Z
	DD	imagerel $tryMap$??$?6U?$char_traits@D@std@@@std@@YAAEAV?$basic_ostream@DU?$char_traits@D@std@@@0@AEAV10@PEBD@Z
	DD	imagerel $ip2state$??$?6U?$char_traits@D@std@@@std@@YAAEAV?$basic_ostream@DU?$char_traits@D@std@@@0@AEAV10@PEBD@Z
xdata	ENDS
;	COMDAT xdata
xdata	SEGMENT
$unwind$??$?6U?$char_traits@D@std@@@std@@YAAEAV?$basic_ostream@DU?$char_traits@D@std@@@0@AEAV10@PEBD@Z DD 0a1c19H
	DD	0f641cH
	DD	0d341cH
	DD	0f018521cH
	DD	0d014e016H
	DD	07010c012H
	DD	imagerel __CxxFrameHandler4
	DD	imagerel $cppxdata$??$?6U?$char_traits@D@std@@@std@@YAAEAV?$basic_ostream@DU?$char_traits@D@std@@@0@AEAV10@PEBD@Z
xdata	ENDS
;	COMDAT xdata
xdata	SEGMENT
$ip2state$main DB 08H
	DB	'@'
	DB	00H
	DB	'&'
	DB	02H
	DB	08eH
	DB	04H
	DB	09dH, 0aH
	DB	02H
xdata	ENDS
;	COMDAT xdata
xdata	SEGMENT
$stateUnwindMap$main DB 04H
	DB	0aH
	DD	imagerel __imp_??1Character@@QEAA@XZ
	DB	070H
	DB	032H
	DD	imagerel __imp_??1Character@@QEAA@XZ
	DB	040H
xdata	ENDS
;	COMDAT xdata
xdata	SEGMENT
$cppxdata$main DB 028H
	DD	imagerel $stateUnwindMap$main
	DD	imagerel $ip2state$main
xdata	ENDS
;	COMDAT xdata
xdata	SEGMENT
$unwind$main DD	0a1411H
	DD	0143414H
	DD	0f0109214H
	DD	0d00ce00eH
	DD	07008c00aH
	DD	050066007H
	DD	imagerel __CxxFrameHandler4
	DD	imagerel $cppxdata$main
xdata	ENDS
;	COMDAT xdata
xdata	SEGMENT
$unwind$?now@steady_clock@chrono@std@@SA?AV?$time_point@Usteady_clock@chrono@std@@V?$duration@_JU?$ratio@$00$0DLJKMKAA@@std@@@23@@23@XZ DD 040a01H
	DD	06340aH
	DD	07006320aH
xdata	ENDS
; Function compile flags: /Ogtpy
;	COMDAT ??$_Clamped_rel_time_ms_count@V?$duration@_JU?$ratio@$00$0DLJKMKAA@@std@@@chrono@std@@@std@@YA?AU_Clamped_rel_time_ms_count_result@0@AEBV?$duration@_JU?$ratio@$00$0DLJKMKAA@@std@@@chrono@0@@Z
_TEXT	SEGMENT
_Rel$ = 8
$T1 = 8
$T2 = 8
??$_Clamped_rel_time_ms_count@V?$duration@_JU?$ratio@$00$0DLJKMKAA@@std@@@chrono@std@@@std@@YA?AU_Clamped_rel_time_ms_count_result@0@AEBV?$duration@_JU?$ratio@$00$0DLJKMKAA@@std@@@chrono@0@@Z PROC ; std::_Clamped_rel_time_ms_count<std::chrono::duration<__int64,std::ratio<1,1000000000> > >, COMDAT
; File C:\Program Files\Microsoft Visual Studio\2022\Community\VC\Tools\MSVC\14.44.35207\include\thread
; File C:\Program Files\Microsoft Visual Studio\2022\Community\VC\Tools\MSVC\14.44.35207\include\__msvc_chrono.hpp
; Line 392
  00000	4c 8b 01	 mov	 r8, QWORD PTR [rcx]
; File C:\Program Files\Microsoft Visual Studio\2022\Community\VC\Tools\MSVC\14.44.35207\include\thread
; Line 192
  00003	48 b8 00 00 4f
	91 94 4e 00 00	 mov	 rax, 86400000000000	; 00004e94914f0000H
  0000d	4c 3b c0	 cmp	 r8, rax
  00010	7e 13		 jle	 SHORT $LN2@Clamped_re
; Line 193
  00012	c7 44 24 08 00
	5c 26 05	 mov	 DWORD PTR $T1[rsp], 86400000 ; 05265c00H
  0001a	c6 44 24 0c 01	 mov	 BYTE PTR $T1[rsp+4], 1
; Line 198
  0001f	48 8b 44 24 08	 mov	 rax, QWORD PTR $T2[rsp]
  00024	c3		 ret	 0
$LN2@Clamped_re:
; File C:\Program Files\Microsoft Visual Studio\2022\Community\VC\Tools\MSVC\14.44.35207\include\__msvc_chrono.hpp
; Line 447
  00025	48 b8 db 34 b6
	d7 82 de 1b 43	 mov	 rax, 4835703278458516699 ; 431bde82d7b634dbH
  0002f	49 f7 e8	 imul	 r8
  00032	48 c1 fa 12	 sar	 rdx, 18
  00036	48 8b c2	 mov	 rax, rdx
  00039	48 c1 e8 3f	 shr	 rax, 63			; 0000003fH
  0003d	48 03 d0	 add	 rdx, rax
; Line 442
  00040	48 69 c2 40 42
	0f 00		 imul	 rax, rdx, 1000000	; 000f4240H
; Line 475
  00047	49 3b c0	 cmp	 rax, r8
  0004a	7d 03		 jge	 SHORT $LN20@Clamped_re
; Line 476
  0004c	48 ff c2	 inc	 rdx
$LN20@Clamped_re:
; File C:\Program Files\Microsoft Visual Studio\2022\Community\VC\Tools\MSVC\14.44.35207\include\thread
; Line 196
  0004f	89 54 24 08	 mov	 DWORD PTR $T2[rsp], edx
  00053	c6 44 24 0c 00	 mov	 BYTE PTR $T2[rsp+4], 0
; Line 198
  00058	48 8b 44 24 08	 mov	 rax, QWORD PTR $T2[rsp]
  0005d	c3		 ret	 0
??$_Clamped_rel_time_ms_count@V?$duration@_JU?$ratio@$00$0DLJKMKAA@@std@@@chrono@std@@@std@@YA?AU_Clamped_rel_time_ms_count_result@0@AEBV?$duration@_JU?$ratio@$00$0DLJKMKAA@@std@@@chrono@0@@Z ENDP ; std::_Clamped_rel_time_ms_count<std::chrono::duration<__int64,std::ratio<1,1000000000> > >
_TEXT	ENDS
; Function compile flags: /Ogtpy
;	COMDAT ??$sleep_until@Usteady_clock@chrono@std@@V?$duration@_JU?$ratio@$00$0DLJKMKAA@@std@@@23@@this_thread@std@@YAXAEBV?$time_point@Usteady_clock@chrono@std@@V?$duration@_JU?$ratio@$00$0DLJKMKAA@@std@@@23@@chrono@1@@Z
_TEXT	SEGMENT
_Abs_time$ = 48
??$sleep_until@Usteady_clock@chrono@std@@V?$duration@_JU?$ratio@$00$0DLJKMKAA@@std@@@23@@this_thread@std@@YAXAEBV?$time_point@Usteady_clock@chrono@std@@V?$duration@_JU?$ratio@$00$0DLJKMKAA@@std@@@23@@chrono@1@@Z PROC ; std::this_thread::sleep_until<std::chrono::steady_clock,std::chrono::duration<__int64,std::ratio<1,1000000000> > >, COMDAT
; File C:\Program Files\Microsoft Visual Studio\2022\Community\VC\Tools\MSVC\14.44.35207\include\thread
; Line 208
$LN120:
  00000	48 89 5c 24 08	 mov	 QWORD PTR [rsp+8], rbx
  00005	48 89 6c 24 10	 mov	 QWORD PTR [rsp+16], rbp
  0000a	48 89 74 24 18	 mov	 QWORD PTR [rsp+24], rsi
  0000f	48 89 7c 24 20	 mov	 QWORD PTR [rsp+32], rdi
  00014	41 56		 push	 r14
  00016	48 83 ec 20	 sub	 rsp, 32			; 00000020H
  0001a	48 8b f9	 mov	 rdi, rcx
  0001d	48 be 00 00 4f
	91 94 4e 00 00	 mov	 rsi, 86400000000000	; 00004e94914f0000H
  00027	48 bd db 34 b6
	d7 82 de 1b 43	 mov	 rbp, 4835703278458516699 ; 431bde82d7b634dbH
  00031	49 be f3 8c 90
	94 07 fc f4 b2	 mov	 r14, -5551535331153507085 ; b2f4fc0794908cf3H
  0003b	0f 1f 44 00 00	 npad	 5
$LL4@sleep_unti:
; File C:\Program Files\Microsoft Visual Studio\2022\Community\VC\Tools\MSVC\14.44.35207\include\__msvc_chrono.hpp
; Line 657
  00040	e8 00 00 00 00	 call	 _Query_perf_frequency
  00045	48 8b d8	 mov	 rbx, rax
; Line 658
  00048	e8 00 00 00 00	 call	 _Query_perf_counter
  0004d	48 8b c8	 mov	 rcx, rax
; Line 664
  00050	48 81 fb 80 96
	98 00		 cmp	 rbx, 10000000		; 00989680H
  00057	75 06		 jne	 SHORT $LN8@sleep_unti
; Line 670
  00059	48 6b c1 64	 imul	 rax, rcx, 100		; 00000064H
  0005d	eb 71		 jmp	 SHORT $LN11@sleep_unti
$LN8@sleep_unti:
; Line 671
  0005f	48 81 fb 00 36
	6e 01		 cmp	 rbx, 24000000		; 016e3600H
  00066	75 4a		 jne	 SHORT $LN10@sleep_unti
; Line 673
  00068	49 8b c6	 mov	 rax, r14
  0006b	48 f7 e9	 imul	 rcx
  0006e	4c 8d 04 11	 lea	 r8, QWORD PTR [rcx+rdx]
  00072	49 c1 f8 18	 sar	 r8, 24
  00076	49 8b c0	 mov	 rax, r8
  00079	48 c1 e8 3f	 shr	 rax, 63			; 0000003fH
  0007d	4c 03 c0	 add	 r8, rax
  00080	49 69 c0 00 36
	6e 01		 imul	 rax, r8, 24000000	; 016e3600H
; Line 674
  00087	48 2b c8	 sub	 rcx, rax
  0008a	49 8b c6	 mov	 rax, r14
  0008d	48 69 c9 00 ca
	9a 3b		 imul	 rcx, rcx, 1000000000	; 3b9aca00H
  00094	48 f7 e9	 imul	 rcx
  00097	48 8d 04 11	 lea	 rax, QWORD PTR [rcx+rdx]
  0009b	48 c1 f8 18	 sar	 rax, 24
  0009f	48 8b c8	 mov	 rcx, rax
  000a2	48 c1 e9 3f	 shr	 rcx, 63			; 0000003fH
  000a6	48 03 c1	 add	 rax, rcx
  000a9	49 69 c8 00 ca
	9a 3b		 imul	 rcx, r8, 1000000000	; 3b9aca00H
; Line 675
  000b0	eb 1b		 jmp	 SHORT $LN117@sleep_unti
$LN10@sleep_unti:
; Line 683
  000b2	48 99		 cdq
  000b4	48 f7 fb	 idiv	 rbx
  000b7	48 8b c8	 mov	 rcx, rax
  000ba	48 69 c2 00 ca
	9a 3b		 imul	 rax, rdx, 1000000000	; 3b9aca00H
  000c1	48 99		 cdq
  000c3	48 f7 fb	 idiv	 rbx
  000c6	48 69 c9 00 ca
	9a 3b		 imul	 rcx, rcx, 1000000000	; 3b9aca00H
$LN117@sleep_unti:
; Line 221
  000cd	48 03 c1	 add	 rax, rcx
$LN11@sleep_unti:
  000d0	48 8b 0f	 mov	 rcx, QWORD PTR [rdi]
; File C:\Program Files\Microsoft Visual Studio\2022\Community\VC\Tools\MSVC\14.44.35207\include\thread
; Line 212
  000d3	48 3b c1	 cmp	 rax, rcx
  000d6	7d 47		 jge	 SHORT $LN108@sleep_unti
; File C:\Program Files\Microsoft Visual Studio\2022\Community\VC\Tools\MSVC\14.44.35207\include\__msvc_chrono.hpp
; Line 221
  000d8	48 2b c8	 sub	 rcx, rax
; File C:\Program Files\Microsoft Visual Studio\2022\Community\VC\Tools\MSVC\14.44.35207\include\thread
; Line 192
  000db	48 3b ce	 cmp	 rcx, rsi
  000de	7e 11		 jle	 SHORT $LN63@sleep_unti
; Line 193
  000e0	ba 00 5c 26 05	 mov	 edx, 86400000		; 05265c00H
; Line 217
  000e5	8b ca		 mov	 ecx, edx
  000e7	e8 00 00 00 00	 call	 _Thrd_sleep_for
  000ec	e9 4f ff ff ff	 jmp	 $LL4@sleep_unti
$LN63@sleep_unti:
; File C:\Program Files\Microsoft Visual Studio\2022\Community\VC\Tools\MSVC\14.44.35207\include\__msvc_chrono.hpp
; Line 447
  000f1	48 8b c5	 mov	 rax, rbp
  000f4	48 f7 e9	 imul	 rcx
  000f7	48 c1 fa 12	 sar	 rdx, 18
  000fb	48 8b c2	 mov	 rax, rdx
  000fe	48 c1 e8 3f	 shr	 rax, 63			; 0000003fH
  00102	48 03 d0	 add	 rdx, rax
; Line 442
  00105	48 69 c2 40 42
	0f 00		 imul	 rax, rdx, 1000000	; 000f4240H
; Line 475
  0010c	48 3b c1	 cmp	 rax, rcx
  0010f	7d 02		 jge	 SHORT $LN82@sleep_unti
; Line 476
  00111	ff c2		 inc	 edx
$LN82@sleep_unti:
; File C:\Program Files\Microsoft Visual Studio\2022\Community\VC\Tools\MSVC\14.44.35207\include\thread
; Line 217
  00113	8b ca		 mov	 ecx, edx
  00115	e8 00 00 00 00	 call	 _Thrd_sleep_for
  0011a	e9 21 ff ff ff	 jmp	 $LL4@sleep_unti
$LN108@sleep_unti:
; Line 219
  0011f	48 8b 5c 24 30	 mov	 rbx, QWORD PTR [rsp+48]
  00124	48 8b 6c 24 38	 mov	 rbp, QWORD PTR [rsp+56]
  00129	48 8b 74 24 40	 mov	 rsi, QWORD PTR [rsp+64]
  0012e	48 8b 7c 24 48	 mov	 rdi, QWORD PTR [rsp+72]
  00133	48 83 c4 20	 add	 rsp, 32			; 00000020H
  00137	41 5e		 pop	 r14
  00139	c3		 ret	 0
??$sleep_until@Usteady_clock@chrono@std@@V?$duration@_JU?$ratio@$00$0DLJKMKAA@@std@@@23@@this_thread@std@@YAXAEBV?$time_point@Usteady_clock@chrono@std@@V?$duration@_JU?$ratio@$00$0DLJKMKAA@@std@@@23@@chrono@1@@Z ENDP ; std::this_thread::sleep_until<std::chrono::steady_clock,std::chrono::duration<__int64,std::ratio<1,1000000000> > >
_TEXT	ENDS
; Function compile flags: /Ogtpy
;	COMDAT ??$_To_absolute_time@_JU?$ratio@$00$0DOI@@std@@@std@@YA?A_PAEBV?$duration@_JU?$ratio@$00$0DOI@@std@@@chrono@0@@Z
_TEXT	SEGMENT
__$ReturnUdt$ = 48
_Now$ = 48
_Rel_time$ = 56
??$_To_absolute_time@_JU?$ratio@$00$0DOI@@std@@@std@@YA?A_PAEBV?$duration@_JU?$ratio@$00$0DOI@@std@@@chrono@0@@Z PROC ; std::_To_absolute_time<__int64,std::ratio<1,1000> >, COMDAT
; File C:\Program Files\Microsoft Visual Studio\2022\Community\VC\Tools\MSVC\14.44.35207\include\thread
; Line 167
$LN69:
  00000	48 89 5c 24 10	 mov	 QWORD PTR [rsp+16], rbx
  00005	57		 push	 rdi
  00006	48 83 ec 20	 sub	 rsp, 32			; 00000020H
  0000a	48 8b f9	 mov	 rdi, rcx
  0000d	48 8b da	 mov	 rbx, rdx
; Line 169
  00010	48 8d 4c 24 30	 lea	 rcx, QWORD PTR _Now$[rsp]
  00015	e8 00 00 00 00	 call	 ?now@steady_clock@chrono@std@@SA?AV?$time_point@Usteady_clock@chrono@std@@V?$duration@_JU?$ratio@$00$0DLJKMKAA@@std@@@23@@23@XZ ; std::chrono::steady_clock::now
; Line 170
  0001a	48 8b 44 24 30	 mov	 rax, QWORD PTR _Now$[rsp]
  0001f	48 89 07	 mov	 QWORD PTR [rdi], rax
; File C:\Program Files\Microsoft Visual Studio\2022\Community\VC\Tools\MSVC\14.44.35207\include\__msvc_chrono.hpp
; Line 392
  00022	48 8b 13	 mov	 rdx, QWORD PTR [rbx]
; File C:\Program Files\Microsoft Visual Studio\2022\Community\VC\Tools\MSVC\14.44.35207\include\thread
; Line 171
  00025	48 85 d2	 test	 rdx, rdx
  00028	7e 33		 jle	 SHORT $LN64@To_absolut
; File C:\Program Files\Microsoft Visual Studio\2022\Community\VC\Tools\MSVC\14.44.35207\include\__msvc_chrono.hpp
; Line 442
  0002a	48 69 ca 40 42
	0f 00		 imul	 rcx, rdx, 1000000	; 000f4240H
; Line 116
  00031	49 b8 ff ff ff
	ff ff ff ff 7f	 mov	 r8, 9223372036854775807	; 7fffffffffffffffH
  0003b	49 8b d0	 mov	 rdx, r8
  0003e	48 2b d1	 sub	 rdx, rcx
; File C:\Program Files\Microsoft Visual Studio\2022\Community\VC\Tools\MSVC\14.44.35207\include\thread
; Line 173
  00041	48 3b c2	 cmp	 rax, rdx
  00044	7d 14		 jge	 SHORT $LN3@To_absolut
; File C:\Program Files\Microsoft Visual Studio\2022\Community\VC\Tools\MSVC\14.44.35207\include\__msvc_chrono.hpp
; Line 151
  00046	48 03 c8	 add	 rcx, rax
; File C:\Program Files\Microsoft Visual Studio\2022\Community\VC\Tools\MSVC\14.44.35207\include\thread
; Line 180
  00049	48 8b c7	 mov	 rax, rdi
; File C:\Program Files\Microsoft Visual Studio\2022\Community\VC\Tools\MSVC\14.44.35207\include\__msvc_chrono.hpp
; Line 151
  0004c	48 89 0f	 mov	 QWORD PTR [rdi], rcx
; File C:\Program Files\Microsoft Visual Studio\2022\Community\VC\Tools\MSVC\14.44.35207\include\thread
; Line 180
  0004f	48 8b 5c 24 38	 mov	 rbx, QWORD PTR [rsp+56]
  00054	48 83 c4 20	 add	 rsp, 32			; 00000020H
  00058	5f		 pop	 rdi
  00059	c3		 ret	 0
$LN3@To_absolut:
; Line 176
  0005a	4c 89 07	 mov	 QWORD PTR [rdi], r8
$LN64@To_absolut:
; Line 180
  0005d	48 8b 5c 24 38	 mov	 rbx, QWORD PTR [rsp+56]
  00062	48 8b c7	 mov	 rax, rdi
  00065	48 83 c4 20	 add	 rsp, 32			; 00000020H
  00069	5f		 pop	 rdi
  0006a	c3		 ret	 0
??$_To_absolute_time@_JU?$ratio@$00$0DOI@@std@@@std@@YA?A_PAEBV?$duration@_JU?$ratio@$00$0DOI@@std@@@chrono@0@@Z ENDP ; std::_To_absolute_time<__int64,std::ratio<1,1000> >
_TEXT	ENDS
; Function compile flags: /Ogtpy
;	COMDAT ??1sentry@?$basic_ostream@DU?$char_traits@D@std@@@std@@QEAA@XZ
_TEXT	SEGMENT
this$ = 48
??1sentry@?$basic_ostream@DU?$char_traits@D@std@@@std@@QEAA@XZ PROC ; std::basic_ostream<char,std::char_traits<char> >::sentry::~sentry, COMDAT
; File C:\Program Files\Microsoft Visual Studio\2022\Community\VC\Tools\MSVC\14.44.35207\include\__msvc_ostream.hpp
; Line 107
$LN14:
  00000	40 53		 push	 rbx
  00002	48 83 ec 20	 sub	 rsp, 32			; 00000020H
  00006	48 8b d9	 mov	 rbx, rcx
; Line 111
  00009	e8 00 00 00 00	 call	 ?uncaught_exception@std@@YA_NXZ ; std::uncaught_exception
; Line 116
  0000e	84 c0		 test	 al, al
  00010	75 0a		 jne	 SHORT $LN2@sentry
; Line 117
  00012	48 8b 0b	 mov	 rcx, QWORD PTR [rbx]
  00015	ff 15 00 00 00
	00		 call	 QWORD PTR __imp_?_Osfx@?$basic_ostream@DU?$char_traits@D@std@@@std@@QEAAXXZ
  0001b	90		 npad	 1
$LN2@sentry:
; Line 77
  0001c	48 8b 13	 mov	 rdx, QWORD PTR [rbx]
  0001f	48 8b 02	 mov	 rax, QWORD PTR [rdx]
  00022	48 63 48 04	 movsxd	 rcx, DWORD PTR [rax+4]
  00026	48 03 ca	 add	 rcx, rdx
  00029	ff 15 00 00 00
	00		 call	 QWORD PTR __imp_?rdbuf@?$basic_ios@DU?$char_traits@D@std@@@std@@QEBAPEAV?$basic_streambuf@DU?$char_traits@D@std@@@2@XZ
; Line 78
  0002f	48 85 c0	 test	 rax, rax
  00032	74 0d		 je	 SHORT $LN11@sentry
; Line 79
  00034	48 8b 08	 mov	 rcx, QWORD PTR [rax]
  00037	48 8b 51 10	 mov	 rdx, QWORD PTR [rcx+16]
  0003b	48 8b c8	 mov	 rcx, rax
  0003e	ff d2		 call	 rdx
  00040	90		 npad	 1
$LN11@sentry:
; Line 119
  00041	48 83 c4 20	 add	 rsp, 32			; 00000020H
  00045	5b		 pop	 rbx
  00046	c3		 ret	 0
??1sentry@?$basic_ostream@DU?$char_traits@D@std@@@std@@QEAA@XZ ENDP ; std::basic_ostream<char,std::char_traits<char> >::sentry::~sentry
_TEXT	ENDS
; Function compile flags: /Ogtpy
;	COMDAT ??1_Sentry_base@?$basic_ostream@DU?$char_traits@D@std@@@std@@QEAA@XZ
_TEXT	SEGMENT
this$ = 48
??1_Sentry_base@?$basic_ostream@DU?$char_traits@D@std@@@std@@QEAA@XZ PROC ; std::basic_ostream<char,std::char_traits<char> >::_Sentry_base::~_Sentry_base, COMDAT
; File C:\Program Files\Microsoft Visual Studio\2022\Community\VC\Tools\MSVC\14.44.35207\include\__msvc_ostream.hpp
; Line 76
$LN7:
  00000	48 83 ec 28	 sub	 rsp, 40			; 00000028H
; Line 77
  00004	48 8b 11	 mov	 rdx, QWORD PTR [rcx]
  00007	48 8b 02	 mov	 rax, QWORD PTR [rdx]
  0000a	48 63 48 04	 movsxd	 rcx, DWORD PTR [rax+4]
  0000e	48 03 ca	 add	 rcx, rdx
  00011	ff 15 00 00 00
	00		 call	 QWORD PTR __imp_?rdbuf@?$basic_ios@DU?$char_traits@D@std@@@std@@QEBAPEAV?$basic_streambuf@DU?$char_traits@D@std@@@2@XZ
; Line 78
  00017	48 85 c0	 test	 rax, rax
  0001a	74 0d		 je	 SHORT $LN2@Sentry_bas
; Line 79
  0001c	48 8b 08	 mov	 rcx, QWORD PTR [rax]
  0001f	48 8b 51 10	 mov	 rdx, QWORD PTR [rcx+16]
  00023	48 8b c8	 mov	 rcx, rax
  00026	ff d2		 call	 rdx
  00028	90		 npad	 1
$LN2@Sentry_bas:
; Line 81
  00029	48 83 c4 28	 add	 rsp, 40			; 00000028H
  0002d	c3		 ret	 0
??1_Sentry_base@?$basic_ostream@DU?$char_traits@D@std@@@std@@QEAA@XZ ENDP ; std::basic_ostream<char,std::char_traits<char> >::_Sentry_base::~_Sentry_base
_TEXT	ENDS
; Function compile flags: /Ogtpy
;	COMDAT ??$sleep_for@_JU?$ratio@$00$0DOI@@std@@@this_thread@std@@YAXAEBV?$duration@_JU?$ratio@$00$0DOI@@std@@@chrono@1@@Z
_TEXT	SEGMENT
_Rel_time$ = 64
_Now$4 = 64
??$sleep_for@_JU?$ratio@$00$0DOI@@std@@@this_thread@std@@YAXAEBV?$duration@_JU?$ratio@$00$0DOI@@std@@@chrono@1@@Z PROC ; std::this_thread::sleep_for<__int64,std::ratio<1,1000> >, COMDAT
; File C:\Program Files\Microsoft Visual Studio\2022\Community\VC\Tools\MSVC\14.44.35207\include\thread
; Line 222
$LN189:
  00000	48 89 5c 24 10	 mov	 QWORD PTR [rsp+16], rbx
  00005	48 89 6c 24 18	 mov	 QWORD PTR [rsp+24], rbp
  0000a	56		 push	 rsi
  0000b	57		 push	 rdi
  0000c	41 56		 push	 r14
  0000e	48 83 ec 20	 sub	 rsp, 32			; 00000020H
  00012	48 8b f9	 mov	 rdi, rcx
; Line 169
  00015	48 8d 4c 24 40	 lea	 rcx, QWORD PTR _Now$4[rsp]
  0001a	e8 00 00 00 00	 call	 ?now@steady_clock@chrono@std@@SA?AV?$time_point@Usteady_clock@chrono@std@@V?$duration@_JU?$ratio@$00$0DLJKMKAA@@std@@@23@@23@XZ ; std::chrono::steady_clock::now
; File C:\Program Files\Microsoft Visual Studio\2022\Community\VC\Tools\MSVC\14.44.35207\include\__msvc_chrono.hpp
; Line 392
  0001f	48 8b 07	 mov	 rax, QWORD PTR [rdi]
; File C:\Program Files\Microsoft Visual Studio\2022\Community\VC\Tools\MSVC\14.44.35207\include\thread
; Line 170
  00022	48 8b 5c 24 40	 mov	 rbx, QWORD PTR _Now$4[rsp]
  00027	48 8b cb	 mov	 rcx, rbx
; Line 171
  0002a	48 85 c0	 test	 rax, rax
  0002d	7e 20		 jle	 SHORT $LN5@sleep_for
; File C:\Program Files\Microsoft Visual Studio\2022\Community\VC\Tools\MSVC\14.44.35207\include\__msvc_chrono.hpp
; Line 442
  0002f	48 69 d0 40 42
	0f 00		 imul	 rdx, rax, 1000000	; 000f4240H
; Line 116
  00036	48 bb ff ff ff
	ff ff ff ff 7f	 mov	 rbx, 9223372036854775807 ; 7fffffffffffffffH
  00040	48 8b c3	 mov	 rax, rbx
  00043	48 2b c2	 sub	 rax, rdx
  00046	48 3b c8	 cmp	 rcx, rax
; File C:\Program Files\Microsoft Visual Studio\2022\Community\VC\Tools\MSVC\14.44.35207\include\thread
; Line 173
  00049	7d 04		 jge	 SHORT $LN5@sleep_for
; File C:\Program Files\Microsoft Visual Studio\2022\Community\VC\Tools\MSVC\14.44.35207\include\__msvc_chrono.hpp
; Line 151
  0004b	48 8d 1c 0a	 lea	 rbx, QWORD PTR [rdx+rcx]
$LN5@sleep_for:
  0004f	48 be 00 00 4f
	91 94 4e 00 00	 mov	 rsi, 86400000000000	; 00004e94914f0000H
  00059	48 bd db 34 b6
	d7 82 de 1b 43	 mov	 rbp, 4835703278458516699 ; 431bde82d7b634dbH
  00063	49 be f3 8c 90
	94 07 fc f4 b2	 mov	 r14, -5551535331153507085 ; b2f4fc0794908cf3H
  0006d	0f 1f 00	 npad	 3
$LL69@sleep_for:
; Line 657
  00070	e8 00 00 00 00	 call	 _Query_perf_frequency
  00075	48 8b f8	 mov	 rdi, rax
; Line 658
  00078	e8 00 00 00 00	 call	 _Query_perf_counter
  0007d	48 8b c8	 mov	 rcx, rax
; Line 664
  00080	48 81 ff 80 96
	98 00		 cmp	 rdi, 10000000		; 00989680H
  00087	75 06		 jne	 SHORT $LN73@sleep_for
; Line 670
  00089	48 6b c1 64	 imul	 rax, rcx, 100		; 00000064H
  0008d	eb 71		 jmp	 SHORT $LN76@sleep_for
$LN73@sleep_for:
; Line 671
  0008f	48 81 ff 00 36
	6e 01		 cmp	 rdi, 24000000		; 016e3600H
  00096	75 4a		 jne	 SHORT $LN75@sleep_for
; Line 673
  00098	49 8b c6	 mov	 rax, r14
  0009b	48 f7 e9	 imul	 rcx
  0009e	4c 8d 04 11	 lea	 r8, QWORD PTR [rcx+rdx]
  000a2	49 c1 f8 18	 sar	 r8, 24
  000a6	49 8b c0	 mov	 rax, r8
  000a9	48 c1 e8 3f	 shr	 rax, 63			; 0000003fH
  000ad	4c 03 c0	 add	 r8, rax
  000b0	49 69 c0 00 36
	6e 01		 imul	 rax, r8, 24000000	; 016e3600H
; Line 674
  000b7	48 2b c8	 sub	 rcx, rax
  000ba	49 8b c6	 mov	 rax, r14
  000bd	48 69 c9 00 ca
	9a 3b		 imul	 rcx, rcx, 1000000000	; 3b9aca00H
  000c4	48 f7 e9	 imul	 rcx
  000c7	48 8d 04 11	 lea	 rax, QWORD PTR [rcx+rdx]
  000cb	48 c1 f8 18	 sar	 rax, 24
  000cf	48 8b c8	 mov	 rcx, rax
  000d2	48 c1 e9 3f	 shr	 rcx, 63			; 0000003fH
  000d6	48 03 c1	 add	 rax, rcx
  000d9	49 69 c8 00 ca
	9a 3b		 imul	 rcx, r8, 1000000000	; 3b9aca00H
; Line 675
  000e0	eb 1b		 jmp	 SHORT $LN186@sleep_for
$LN75@sleep_for:
; Line 683
  000e2	48 99		 cdq
  000e4	48 f7 ff	 idiv	 rdi
  000e7	48 8b c8	 mov	 rcx, rax
  000ea	48 69 c2 00 ca
	9a 3b		 imul	 rax, rdx, 1000000000	; 3b9aca00H
  000f1	48 99		 cdq
  000f3	48 f7 ff	 idiv	 rdi
  000f6	48 69 c9 00 ca
	9a 3b		 imul	 rcx, rcx, 1000000000	; 3b9aca00H
$LN186@sleep_for:
; File C:\Program Files\Microsoft Visual Studio\2022\Community\VC\Tools\MSVC\14.44.35207\include\thread
; Line 212
  000fd	48 03 c1	 add	 rax, rcx
$LN76@sleep_for:
  00100	48 3b c3	 cmp	 rax, rbx
  00103	7d 4a		 jge	 SHORT $LN173@sleep_for
; File C:\Program Files\Microsoft Visual Studio\2022\Community\VC\Tools\MSVC\14.44.35207\include\__msvc_chrono.hpp
; Line 221
  00105	48 8b cb	 mov	 rcx, rbx
  00108	48 2b c8	 sub	 rcx, rax
; File C:\Program Files\Microsoft Visual Studio\2022\Community\VC\Tools\MSVC\14.44.35207\include\thread
; Line 192
  0010b	48 3b ce	 cmp	 rcx, rsi
  0010e	7e 11		 jle	 SHORT $LN128@sleep_for
; Line 193
  00110	ba 00 5c 26 05	 mov	 edx, 86400000		; 05265c00H
; Line 217
  00115	8b ca		 mov	 ecx, edx
  00117	e8 00 00 00 00	 call	 _Thrd_sleep_for
  0011c	e9 4f ff ff ff	 jmp	 $LL69@sleep_for
$LN128@sleep_for:
; File C:\Program Files\Microsoft Visual Studio\2022\Community\VC\Tools\MSVC\14.44.35207\include\__msvc_chrono.hpp
; Line 447
  00121	48 8b c5	 mov	 rax, rbp
  00124	48 f7 e9	 imul	 rcx
  00127	48 c1 fa 12	 sar	 rdx, 18
  0012b	48 8b c2	 mov	 rax, rdx
  0012e	48 c1 e8 3f	 shr	 rax, 63			; 0000003fH
  00132	48 03 d0	 add	 rdx, rax
; Line 442
  00135	48 69 c2 40 42
	0f 00		 imul	 rax, rdx, 1000000	; 000f4240H
; Line 475
  0013c	48 3b c1	 cmp	 rax, rcx
  0013f	7d 02		 jge	 SHORT $LN147@sleep_for
; Line 476
  00141	ff c2		 inc	 edx
$LN147@sleep_for:
; File C:\Program Files\Microsoft Visual Studio\2022\Community\VC\Tools\MSVC\14.44.35207\include\thread
; Line 217
  00143	8b ca		 mov	 ecx, edx
  00145	e8 00 00 00 00	 call	 _Thrd_sleep_for
  0014a	e9 21 ff ff ff	 jmp	 $LL69@sleep_for
$LN173@sleep_for:
; Line 224
  0014f	48 8b 5c 24 48	 mov	 rbx, QWORD PTR [rsp+72]
  00154	48 8b 6c 24 50	 mov	 rbp, QWORD PTR [rsp+80]
  00159	48 83 c4 20	 add	 rsp, 32			; 00000020H
  0015d	41 5e		 pop	 r14
  0015f	5f		 pop	 rdi
  00160	5e		 pop	 rsi
  00161	c3		 ret	 0
??$sleep_for@_JU?$ratio@$00$0DOI@@std@@@this_thread@std@@YAXAEBV?$duration@_JU?$ratio@$00$0DOI@@std@@@chrono@1@@Z ENDP ; std::this_thread::sleep_for<__int64,std::ratio<1,1000> >
_TEXT	ENDS
; Function compile flags: /Ogtpy
;	COMDAT ??$endl@DU?$char_traits@D@std@@@std@@YAAEAV?$basic_ostream@DU?$char_traits@D@std@@@0@AEAV10@@Z
_TEXT	SEGMENT
_Ostr$ = 48
??$endl@DU?$char_traits@D@std@@@std@@YAAEAV?$basic_ostream@DU?$char_traits@D@std@@@0@AEAV10@@Z PROC ; std::endl<char,std::char_traits<char> >, COMDAT
; File C:\Program Files\Microsoft Visual Studio\2022\Community\VC\Tools\MSVC\14.44.35207\include\__msvc_ostream.hpp
; Line 1012
$LN4:
  00000	40 53		 push	 rbx
  00002	48 83 ec 20	 sub	 rsp, 32			; 00000020H
; Line 1013
  00006	48 8b 01	 mov	 rax, QWORD PTR [rcx]
  00009	48 8b d9	 mov	 rbx, rcx
  0000c	b2 0a		 mov	 dl, 10
  0000e	48 63 48 04	 movsxd	 rcx, DWORD PTR [rax+4]
  00012	48 03 cb	 add	 rcx, rbx
  00015	ff 15 00 00 00
	00		 call	 QWORD PTR __imp_?widen@?$basic_ios@DU?$char_traits@D@std@@@std@@QEBADD@Z
  0001b	0f b6 d0	 movzx	 edx, al
  0001e	48 8b cb	 mov	 rcx, rbx
  00021	ff 15 00 00 00
	00		 call	 QWORD PTR __imp_?put@?$basic_ostream@DU?$char_traits@D@std@@@std@@QEAAAEAV12@D@Z
; Line 1014
  00027	48 8b cb	 mov	 rcx, rbx
  0002a	ff 15 00 00 00
	00		 call	 QWORD PTR __imp_?flush@?$basic_ostream@DU?$char_traits@D@std@@@std@@QEAAAEAV12@XZ
; Line 1015
  00030	48 8b c3	 mov	 rax, rbx
; Line 1016
  00033	48 83 c4 20	 add	 rsp, 32			; 00000020H
  00037	5b		 pop	 rbx
  00038	c3		 ret	 0
??$endl@DU?$char_traits@D@std@@@std@@YAAEAV?$basic_ostream@DU?$char_traits@D@std@@@0@AEAV10@@Z ENDP ; std::endl<char,std::char_traits<char> >
_TEXT	ENDS
; Function compile flags: /Ogtpy
;	COMDAT ??$?6U?$char_traits@D@std@@@std@@YAAEAV?$basic_ostream@DU?$char_traits@D@std@@@0@AEAV10@PEBD@Z
_TEXT	SEGMENT
_Ok$ = 32
_Ostr$ = 96
_Val$ = 104
_State$ = 112
??$?6U?$char_traits@D@std@@@std@@YAAEAV?$basic_ostream@DU?$char_traits@D@std@@@0@AEAV10@PEBD@Z PROC ; std::operator<<<std::char_traits<char> >, COMDAT
; File C:\Program Files\Microsoft Visual Studio\2022\Community\VC\Tools\MSVC\14.44.35207\include\__msvc_ostream.hpp
; Line 768
$LN72:
  00000	48 89 5c 24 10	 mov	 QWORD PTR [rsp+16], rbx
  00005	48 89 74 24 20	 mov	 QWORD PTR [rsp+32], rsi
  0000a	48 89 4c 24 08	 mov	 QWORD PTR [rsp+8], rcx
  0000f	57		 push	 rdi
  00010	41 54		 push	 r12
  00012	41 55		 push	 r13
  00014	41 56		 push	 r14
  00016	41 57		 push	 r15
  00018	48 83 ec 30	 sub	 rsp, 48			; 00000030H
  0001c	4c 8b ea	 mov	 r13, rdx
  0001f	48 8b f9	 mov	 rdi, rcx
; Line 773
  00022	45 33 f6	 xor	 r14d, r14d
  00025	44 89 74 24 70	 mov	 DWORD PTR _State$[rsp], r14d
; File C:\Program Files\Microsoft Visual Studio\2022\Community\VC\Tools\MSVC\14.44.35207\include\__msvc_string_view.hpp
; Line 456
  0002a	48 8b ca	 mov	 rcx, rdx
  0002d	e8 00 00 00 00	 call	 strlen
  00032	4c 8b e0	 mov	 r12, rax
; File C:\Program Files\Microsoft Visual Studio\2022\Community\VC\Tools\MSVC\14.44.35207\include\__msvc_ostream.hpp
; Line 775
  00035	4c 8b 07	 mov	 r8, QWORD PTR [rdi]
  00038	49 63 48 04	 movsxd	 rcx, DWORD PTR [r8+4]
  0003c	48 03 cf	 add	 rcx, rdi
  0003f	ff 15 00 00 00
	00		 call	 QWORD PTR __imp_?width@ios_base@std@@QEBA_JXZ
  00045	48 85 c0	 test	 rax, rax
  00048	7e 2d		 jle	 SHORT $LN17@operator
  0004a	48 8b 0f	 mov	 rcx, QWORD PTR [rdi]
  0004d	48 63 49 04	 movsxd	 rcx, DWORD PTR [rcx+4]
  00051	48 03 cf	 add	 rcx, rdi
  00054	ff 15 00 00 00
	00		 call	 QWORD PTR __imp_?width@ios_base@std@@QEBA_JXZ
  0005a	49 3b c4	 cmp	 rax, r12
  0005d	7e 18		 jle	 SHORT $LN17@operator
  0005f	48 8b 07	 mov	 rax, QWORD PTR [rdi]
  00062	48 63 48 04	 movsxd	 rcx, DWORD PTR [rax+4]
  00066	48 03 cf	 add	 rcx, rdi
  00069	ff 15 00 00 00
	00		 call	 QWORD PTR __imp_?width@ios_base@std@@QEBA_JXZ
  0006f	48 8b f0	 mov	 rsi, rax
  00072	49 2b f4	 sub	 rsi, r12
  00075	eb 03		 jmp	 SHORT $LN18@operator
$LN17@operator:
  00077	49 8b f6	 mov	 rsi, r14
$LN18@operator:
; Line 69
  0007a	4c 8b ff	 mov	 r15, rdi
  0007d	48 89 7c 24 20	 mov	 QWORD PTR _Ok$[rsp], rdi
; Line 70
  00082	48 8b 07	 mov	 rax, QWORD PTR [rdi]
  00085	48 63 48 04	 movsxd	 rcx, DWORD PTR [rax+4]
  00089	48 03 cf	 add	 rcx, rdi
  0008c	ff 15 00 00 00
	00		 call	 QWORD PTR __imp_?rdbuf@?$basic_ios@DU?$char_traits@D@std@@@std@@QEBAPEAV?$basic_streambuf@DU?$char_traits@D@std@@@2@XZ
; Line 71
  00092	48 85 c0	 test	 rax, rax
  00095	74 0d		 je	 SHORT $LN34@operator
; Line 72
  00097	48 8b 08	 mov	 rcx, QWORD PTR [rax]
  0009a	48 8b 51 08	 mov	 rdx, QWORD PTR [rcx+8]
  0009e	48 8b c8	 mov	 rcx, rax
  000a1	ff d2		 call	 rdx
  000a3	90		 npad	 1
$LN34@operator:
; Line 91
  000a4	48 8b 07	 mov	 rax, QWORD PTR [rdi]
  000a7	48 63 48 04	 movsxd	 rcx, DWORD PTR [rax+4]
  000ab	48 03 cf	 add	 rcx, rdi
  000ae	ff 15 00 00 00
	00		 call	 QWORD PTR __imp_?good@ios_base@std@@QEBA_NXZ
  000b4	84 c0		 test	 al, al
  000b6	75 06		 jne	 SHORT $LN28@operator
; Line 92
  000b8	88 44 24 28	 mov	 BYTE PTR _Ok$[rsp+8], al
; Line 93
  000bc	eb 40		 jmp	 SHORT $LN27@operator
$LN28@operator:
; Line 96
  000be	48 8b 07	 mov	 rax, QWORD PTR [rdi]
  000c1	48 63 48 04	 movsxd	 rcx, DWORD PTR [rax+4]
  000c5	48 03 cf	 add	 rcx, rdi
  000c8	ff 15 00 00 00
	00		 call	 QWORD PTR __imp_?tie@?$basic_ios@DU?$char_traits@D@std@@@std@@QEBAPEAV?$basic_ostream@DU?$char_traits@D@std@@@2@XZ
; Line 97
  000ce	48 85 c0	 test	 rax, rax
  000d1	74 24		 je	 SHORT $LN30@operator
  000d3	48 3b c7	 cmp	 rax, rdi
  000d6	74 1f		 je	 SHORT $LN30@operator
; Line 102
  000d8	48 8b c8	 mov	 rcx, rax
  000db	ff 15 00 00 00
	00		 call	 QWORD PTR __imp_?flush@?$basic_ostream@DU?$char_traits@D@std@@@std@@QEAAAEAV12@XZ
; Line 103
  000e1	48 8b 07	 mov	 rax, QWORD PTR [rdi]
  000e4	48 63 48 04	 movsxd	 rcx, DWORD PTR [rax+4]
  000e8	48 03 cf	 add	 rcx, rdi
  000eb	ff 15 00 00 00
	00		 call	 QWORD PTR __imp_?good@ios_base@std@@QEBA_NXZ
  000f1	88 44 24 28	 mov	 BYTE PTR _Ok$[rsp+8], al
  000f5	eb 07		 jmp	 SHORT $LN27@operator
$LN30@operator:
; Line 98
  000f7	c6 44 24 28 01	 mov	 BYTE PTR _Ok$[rsp+8], 1
  000fc	b0 01		 mov	 al, 1
$LN27@operator:
; Line 778
  000fe	84 c0		 test	 al, al
  00100	75 0b		 jne	 SHORT $LN8@operator
; Line 779
  00102	41 be 04 00 00
	00		 mov	 r14d, 4
; Line 780
  00108	e9 f0 00 00 00	 jmp	 $LN22@operator
$LN8@operator:
; Line 782
  0010d	48 8b 07	 mov	 rax, QWORD PTR [rdi]
  00110	48 63 48 04	 movsxd	 rcx, DWORD PTR [rax+4]
  00114	48 03 cf	 add	 rcx, rdi
  00117	ff 15 00 00 00
	00		 call	 QWORD PTR __imp_?flags@ios_base@std@@QEBAHXZ
  0011d	25 c0 01 00 00	 and	 eax, 448		; 000001c0H
  00122	83 f8 40	 cmp	 eax, 64			; 00000040H
  00125	74 3e		 je	 SHORT $LN62@operator
$LL4@operator:
; Line 783
  00127	48 85 f6	 test	 rsi, rsi
  0012a	7e 39		 jle	 SHORT $LN62@operator
; Line 784
  0012c	48 8b 07	 mov	 rax, QWORD PTR [rdi]
  0012f	48 63 48 04	 movsxd	 rcx, DWORD PTR [rax+4]
  00133	48 03 cf	 add	 rcx, rdi
  00136	ff 15 00 00 00
	00		 call	 QWORD PTR __imp_?rdbuf@?$basic_ios@DU?$char_traits@D@std@@@std@@QEBAPEAV?$basic_streambuf@DU?$char_traits@D@std@@@2@XZ
  0013c	48 8b d8	 mov	 rbx, rax
  0013f	48 8b 0f	 mov	 rcx, QWORD PTR [rdi]
  00142	48 63 49 04	 movsxd	 rcx, DWORD PTR [rcx+4]
  00146	48 03 cf	 add	 rcx, rdi
  00149	ff 15 00 00 00
	00		 call	 QWORD PTR __imp_?fill@?$basic_ios@DU?$char_traits@D@std@@@std@@QEBADXZ
  0014f	0f b6 d0	 movzx	 edx, al
  00152	48 8b cb	 mov	 rcx, rbx
  00155	ff 15 00 00 00
	00		 call	 QWORD PTR __imp_?sputc@?$basic_streambuf@DU?$char_traits@D@std@@@std@@QEAAHD@Z
  0015b	83 f8 ff	 cmp	 eax, -1
  0015e	74 6e		 je	 SHORT $LN69@operator
; Line 783
  00160	48 ff ce	 dec	 rsi
  00163	eb c2		 jmp	 SHORT $LL4@operator
$LN62@operator:
; Line 791
  00165	48 8b 07	 mov	 rax, QWORD PTR [rdi]
  00168	48 63 48 04	 movsxd	 rcx, DWORD PTR [rax+4]
  0016c	48 03 cf	 add	 rcx, rdi
  0016f	ff 15 00 00 00
	00		 call	 QWORD PTR __imp_?rdbuf@?$basic_ios@DU?$char_traits@D@std@@@std@@QEBAPEAV?$basic_streambuf@DU?$char_traits@D@std@@@2@XZ
  00175	4d 8b c4	 mov	 r8, r12
  00178	49 8b d5	 mov	 rdx, r13
  0017b	48 8b c8	 mov	 rcx, rax
  0017e	ff 15 00 00 00
	00		 call	 QWORD PTR __imp_?sputn@?$basic_streambuf@DU?$char_traits@D@std@@@std@@QEAA_JPEBD_J@Z
  00184	49 3b c4	 cmp	 rax, r12
  00187	75 45		 jne	 SHORT $LN69@operator
  00189	0f 1f 80 00 00
	00 00		 npad	 7
$LL7@operator:
; Line 796
  00190	48 85 f6	 test	 rsi, rsi
  00193	7e 44		 jle	 SHORT $LN6@operator
; Line 797
  00195	48 8b 07	 mov	 rax, QWORD PTR [rdi]
  00198	48 63 48 04	 movsxd	 rcx, DWORD PTR [rax+4]
  0019c	48 03 cf	 add	 rcx, rdi
  0019f	ff 15 00 00 00
	00		 call	 QWORD PTR __imp_?rdbuf@?$basic_ios@DU?$char_traits@D@std@@@std@@QEBAPEAV?$basic_streambuf@DU?$char_traits@D@std@@@2@XZ
  001a5	48 8b d8	 mov	 rbx, rax
  001a8	48 8b 0f	 mov	 rcx, QWORD PTR [rdi]
  001ab	48 63 49 04	 movsxd	 rcx, DWORD PTR [rcx+4]
  001af	48 03 cf	 add	 rcx, rdi
  001b2	ff 15 00 00 00
	00		 call	 QWORD PTR __imp_?fill@?$basic_ios@DU?$char_traits@D@std@@@std@@QEBADXZ
  001b8	0f b6 d0	 movzx	 edx, al
  001bb	48 8b cb	 mov	 rcx, rbx
  001be	ff 15 00 00 00
	00		 call	 QWORD PTR __imp_?sputc@?$basic_streambuf@DU?$char_traits@D@std@@@std@@QEAAHD@Z
  001c4	83 f8 ff	 cmp	 eax, -1
  001c7	74 05		 je	 SHORT $LN69@operator
; Line 796
  001c9	48 ff ce	 dec	 rsi
  001cc	eb c2		 jmp	 SHORT $LL7@operator
$LN69@operator:
; Line 804
  001ce	41 be 04 00 00
	00		 mov	 r14d, 4
  001d4	44 89 74 24 70	 mov	 DWORD PTR _State$[rsp], r14d
$LN6@operator:
  001d9	48 8b 07	 mov	 rax, QWORD PTR [rdi]
  001dc	48 63 48 04	 movsxd	 rcx, DWORD PTR [rax+4]
  001e0	48 03 cf	 add	 rcx, rdi
  001e3	33 d2		 xor	 edx, edx
  001e5	ff 15 00 00 00
	00		 call	 QWORD PTR __imp_?width@ios_base@std@@QEAA_J_J@Z
  001eb	90		 npad	 1
  001ec	eb 0f		 jmp	 SHORT $LN22@operator
$LN23@operator:
  001ee	48 8b 7c 24 60	 mov	 rdi, QWORD PTR _Ostr$[rsp]
  001f3	44 8b 74 24 70	 mov	 r14d, DWORD PTR _State$[rsp]
  001f8	4c 8b 7c 24 20	 mov	 r15, QWORD PTR _Ok$[rsp]
$LN22@operator:
; Line 808
  001fd	48 8b 07	 mov	 rax, QWORD PTR [rdi]
  00200	48 63 48 04	 movsxd	 rcx, DWORD PTR [rax+4]
  00204	48 03 cf	 add	 rcx, rdi
  00207	45 33 c0	 xor	 r8d, r8d
  0020a	41 8b d6	 mov	 edx, r14d
  0020d	ff 15 00 00 00
	00		 call	 QWORD PTR __imp_?setstate@?$basic_ios@DU?$char_traits@D@std@@@std@@QEAAXH_N@Z
  00213	90		 npad	 1
; Line 111
  00214	e8 00 00 00 00	 call	 ?uncaught_exception@std@@YA_NXZ ; std::uncaught_exception
; Line 116
  00219	84 c0		 test	 al, al
  0021b	75 0a		 jne	 SHORT $LN43@operator
; Line 117
  0021d	49 8b cf	 mov	 rcx, r15
  00220	ff 15 00 00 00
	00		 call	 QWORD PTR __imp_?_Osfx@?$basic_ostream@DU?$char_traits@D@std@@@std@@QEAAXXZ
  00226	90		 npad	 1
$LN43@operator:
; Line 77
  00227	49 8b 07	 mov	 rax, QWORD PTR [r15]
  0022a	48 63 48 04	 movsxd	 rcx, DWORD PTR [rax+4]
  0022e	49 03 cf	 add	 rcx, r15
  00231	ff 15 00 00 00
	00		 call	 QWORD PTR __imp_?rdbuf@?$basic_ios@DU?$char_traits@D@std@@@std@@QEBAPEAV?$basic_streambuf@DU?$char_traits@D@std@@@2@XZ
; Line 78
  00237	48 85 c0	 test	 rax, rax
  0023a	74 0d		 je	 SHORT $LN67@operator
; Line 79
  0023c	48 8b 08	 mov	 rcx, QWORD PTR [rax]
  0023f	48 8b 51 10	 mov	 rdx, QWORD PTR [rcx+16]
  00243	48 8b c8	 mov	 rcx, rax
  00246	ff d2		 call	 rdx
  00248	90		 npad	 1
$LN67@operator:
; Line 810
  00249	48 8b c7	 mov	 rax, rdi
  0024c	48 8b 5c 24 68	 mov	 rbx, QWORD PTR [rsp+104]
  00251	48 8b 74 24 78	 mov	 rsi, QWORD PTR [rsp+120]
  00256	48 83 c4 30	 add	 rsp, 48			; 00000030H
  0025a	41 5f		 pop	 r15
  0025c	41 5e		 pop	 r14
  0025e	41 5d		 pop	 r13
  00260	41 5c		 pop	 r12
  00262	5f		 pop	 rdi
  00263	c3		 ret	 0
??$?6U?$char_traits@D@std@@@std@@YAAEAV?$basic_ostream@DU?$char_traits@D@std@@@0@AEAV10@PEBD@Z ENDP ; std::operator<<<std::char_traits<char> >
_TEXT	ENDS
; Function compile flags: /Ogtpy
;	COMDAT text$x
text$x	SEGMENT
_Ok$ = 32
_Ostr$ = 96
_Val$ = 104
_State$ = 112
?dtor$1@?0???$?6U?$char_traits@D@std@@@std@@YAAEAV?$basic_ostream@DU?$char_traits@D@std@@@0@AEAV10@PEBD@Z@4HA PROC ; `std::operator<<<std::char_traits<char> >'::`1'::dtor$1
  00000	48 8d 8a 20 00
	00 00		 lea	 rcx, QWORD PTR _Ok$[rdx]
  00007	e9 00 00 00 00	 jmp	 ??1_Sentry_base@?$basic_ostream@DU?$char_traits@D@std@@@std@@QEAA@XZ ; std::basic_ostream<char,std::char_traits<char> >::_Sentry_base::~_Sentry_base
?dtor$1@?0???$?6U?$char_traits@D@std@@@std@@YAAEAV?$basic_ostream@DU?$char_traits@D@std@@@0@AEAV10@PEBD@Z@4HA ENDP ; `std::operator<<<std::char_traits<char> >'::`1'::dtor$1
text$x	ENDS
; Function compile flags: /Ogtpy
;	COMDAT text$x
text$x	SEGMENT
_Ok$ = 32
_Ostr$ = 96
_Val$ = 104
_State$ = 112
?dtor$0@?0???$?6U?$char_traits@D@std@@@std@@YAAEAV?$basic_ostream@DU?$char_traits@D@std@@@0@AEAV10@PEBD@Z@4HA PROC ; `std::operator<<<std::char_traits<char> >'::`1'::dtor$0
  00000	48 8d 8a 20 00
	00 00		 lea	 rcx, QWORD PTR _Ok$[rdx]
  00007	e9 00 00 00 00	 jmp	 ??1sentry@?$basic_ostream@DU?$char_traits@D@std@@@std@@QEAA@XZ ; std::basic_ostream<char,std::char_traits<char> >::sentry::~sentry
?dtor$0@?0???$?6U?$char_traits@D@std@@@std@@YAAEAV?$basic_ostream@DU?$char_traits@D@std@@@0@AEAV10@PEBD@Z@4HA ENDP ; `std::operator<<<std::char_traits<char> >'::`1'::dtor$0
text$x	ENDS
; Function compile flags: /Ogtpy
;	COMDAT text$x
text$x	SEGMENT
_Ok$ = 32
_Ostr$ = 96
_Val$ = 104
_State$ = 112
?catch$4@?0???$?6U?$char_traits@D@std@@@std@@YAAEAV?$basic_ostream@DU?$char_traits@D@std@@@0@AEAV10@PEBD@Z@4HA PROC ; `std::operator<<<std::char_traits<char> >'::`1'::catch$4
; Line 805
  00000	48 89 54 24 10	 mov	 QWORD PTR [rsp+16], rdx
  00005	55		 push	 rbp
  00006	48 83 ec 20	 sub	 rsp, 32			; 00000020H
  0000a	48 8b ea	 mov	 rbp, rdx
__catch$??$?6U?$char_traits@D@std@@@std@@YAAEAV?$basic_ostream@DU?$char_traits@D@std@@@0@AEAV10@PEBD@Z$0:
  0000d	48 8b 55 60	 mov	 rdx, QWORD PTR _Ostr$[rbp]
  00011	48 8b 02	 mov	 rax, QWORD PTR [rdx]
  00014	48 63 48 04	 movsxd	 rcx, DWORD PTR [rax+4]
  00018	48 03 ca	 add	 rcx, rdx
  0001b	41 b0 01	 mov	 r8b, 1
  0001e	ba 04 00 00 00	 mov	 edx, 4
  00023	ff 15 00 00 00
	00		 call	 QWORD PTR __imp_?setstate@?$basic_ios@DU?$char_traits@D@std@@@std@@QEAAXH_N@Z
  00029	90		 npad	 1
  0002a	48 b8 00 00 00
	00 00 00 00 00	 mov	 rax, 0
  00034	48 83 c4 20	 add	 rsp, 32			; 00000020H
  00038	5d		 pop	 rbp
  00039	c3		 ret	 0
  0003a	cc		 int	 3
?catch$4@?0???$?6U?$char_traits@D@std@@@std@@YAAEAV?$basic_ostream@DU?$char_traits@D@std@@@0@AEAV10@PEBD@Z@4HA ENDP ; `std::operator<<<std::char_traits<char> >'::`1'::catch$4
text$x	ENDS
; Function compile flags: /Ogtpy
;	COMDAT main
_TEXT	SEGMENT
hero2$ = 32
hero1$ = 56
roundNum$1$ = 144
_Now$4 = 152
main	PROC						; COMDAT
; File C:\VS_projects\Compilation\FightClub\Main.cpp
; Line 7
$LN208:
  00000	48 89 5c 24 18	 mov	 QWORD PTR [rsp+24], rbx
  00005	55		 push	 rbp
  00006	56		 push	 rsi
  00007	57		 push	 rdi
  00008	41 54		 push	 r12
  0000a	41 55		 push	 r13
  0000c	41 56		 push	 r14
  0000e	41 57		 push	 r15
  00010	48 83 ec 50	 sub	 rsp, 80			; 00000050H
; Line 8
  00014	48 8d 15 00 00
	00 00		 lea	 rdx, OFFSET FLAT:??_C@_06LAMHBIA@Durden@
  0001b	48 8d 4c 24 38	 lea	 rcx, QWORD PTR hero1$[rsp]
  00020	ff 15 00 00 00
	00		 call	 QWORD PTR __imp_??0Character@@QEAA@PEBD@Z
  00026	90		 npad	 1
; Line 9
  00027	48 8d 15 00 00
	00 00		 lea	 rdx, OFFSET FLAT:??_C@_05INJOKMGD@Angel@
  0002e	48 8d 4c 24 20	 lea	 rcx, QWORD PTR hero2$[rsp]
  00033	ff 15 00 00 00
	00		 call	 QWORD PTR __imp_??0Character@@QEAA@PEBD@Z
  00039	90		 npad	 1
; Line 11
  0003a	48 8d 6c 24 38	 lea	 rbp, QWORD PTR hero1$[rsp]
; Line 12
  0003f	48 8d 74 24 20	 lea	 rsi, QWORD PTR hero2$[rsp]
; Line 14
  00044	41 bf 01 00 00
	00		 mov	 r15d, 1
; Line 15
  0004a	45 0f b6 f7	 movzx	 r14d, r15b
  0004e	49 bc 00 00 4f
	91 94 4e 00 00	 mov	 r12, 86400000000000	; 00004e94914f0000H
  00058	49 bd db 34 b6
	d7 82 de 1b 43	 mov	 r13, 4835703278458516699 ; 431bde82d7b634dbH
$LN204@main:
; Line 19
  00062	48 bf ff ff ff
	ff ff ff ff 7f	 mov	 rdi, 9223372036854775807 ; 7fffffffffffffffH
  0006c	48 8d 15 00 00
	00 00		 lea	 rdx, OFFSET FLAT:??_C@_0BJ@NGPLFLNG@?$DN?$DN?$DN?$DN?$DN?$DN?$DN?$DN?$DN?$DN?$DN?$DN?$DN?$DN?$DN?$DN?$DN?5Round?5@
  00073	48 8b 0d 00 00
	00 00		 mov	 rcx, QWORD PTR __imp_?cout@std@@3V?$basic_ostream@DU?$char_traits@D@std@@@1@A
  0007a	e8 00 00 00 00	 call	 ??$?6U?$char_traits@D@std@@@std@@YAAEAV?$basic_ostream@DU?$char_traits@D@std@@@0@AEAV10@PEBD@Z ; std::operator<<<std::char_traits<char> >
  0007f	41 8b d7	 mov	 edx, r15d
  00082	48 8b c8	 mov	 rcx, rax
  00085	ff 15 00 00 00
	00		 call	 QWORD PTR __imp_??6?$basic_ostream@DU?$char_traits@D@std@@@std@@QEAAAEAV01@H@Z
  0008b	41 ff c7	 inc	 r15d
  0008e	44 89 bc 24 90
	00 00 00	 mov	 DWORD PTR roundNum$1$[rsp], r15d
  00096	48 8d 15 00 00
	00 00		 lea	 rdx, OFFSET FLAT:??_C@_0BD@GFMLOFIM@?5?$DN?$DN?$DN?$DN?$DN?$DN?$DN?$DN?$DN?$DN?$DN?$DN?$DN?$DN?$DN?$DN?$DN@
  0009d	48 8b c8	 mov	 rcx, rax
  000a0	e8 00 00 00 00	 call	 ??$?6U?$char_traits@D@std@@@std@@YAAEAV?$basic_ostream@DU?$char_traits@D@std@@@0@AEAV10@PEBD@Z ; std::operator<<<std::char_traits<char> >
  000a5	48 8d 15 00 00
	00 00		 lea	 rdx, OFFSET FLAT:??$endl@DU?$char_traits@D@std@@@std@@YAAEAV?$basic_ostream@DU?$char_traits@D@std@@@0@AEAV10@@Z ; std::endl<char,std::char_traits<char> >
  000ac	48 8b c8	 mov	 rcx, rax
  000af	ff 15 00 00 00
	00		 call	 QWORD PTR __imp_??6?$basic_ostream@DU?$char_traits@D@std@@@std@@QEAAAEAV01@P6AAEAV01@AEAV01@@Z@Z
; Line 20
  000b5	48 8b d6	 mov	 rdx, rsi
  000b8	48 8b cd	 mov	 rcx, rbp
  000bb	ff 15 00 00 00
	00		 call	 QWORD PTR __imp_?attack@Character@@QEAA_NAEAV1@@Z
; Line 22
  000c1	44 3a f0	 cmp	 r14b, al
  000c4	75 08		 jne	 SHORT $LN4@main
  000c6	84 c0		 test	 al, al
  000c8	0f 84 5e 01 00
	00		 je	 $LN190@main
$LN4@main:
; Line 29
  000ce	44 0f b6 f0	 movzx	 r14d, al
; Line 31
  000d2	48 8b ce	 mov	 rcx, rsi
  000d5	ff 15 00 00 00
	00		 call	 QWORD PTR __imp_?dead@Character@@QEBA_NXZ
  000db	48 8d 15 00 00
	00 00		 lea	 rdx, OFFSET FLAT:??$endl@DU?$char_traits@D@std@@@std@@YAAEAV?$basic_ostream@DU?$char_traits@D@std@@@0@AEAV10@@Z ; std::endl<char,std::char_traits<char> >
  000e2	48 8b 0d 00 00
	00 00		 mov	 rcx, QWORD PTR __imp_?cout@std@@3V?$basic_ostream@DU?$char_traits@D@std@@@1@A
  000e9	84 c0		 test	 al, al
  000eb	0f 85 85 01 00
	00		 jne	 $LN191@main
; File C:\Program Files\Microsoft Visual Studio\2022\Community\VC\Tools\MSVC\14.44.35207\include\utility
; Line 139
  000f1	48 8b c5	 mov	 rax, rbp
; Line 140
  000f4	48 8b ee	 mov	 rbp, rsi
; Line 141
  000f7	48 8b f0	 mov	 rsi, rax
; File C:\VS_projects\Compilation\FightClub\Main.cpp
; Line 41
  000fa	ff 15 00 00 00
	00		 call	 QWORD PTR __imp_??6?$basic_ostream@DU?$char_traits@D@std@@@std@@QEAAAEAV01@P6AAEAV01@AEAV01@@Z@Z
; File C:\Program Files\Microsoft Visual Studio\2022\Community\VC\Tools\MSVC\14.44.35207\include\thread
; Line 169
  00100	48 8d 8c 24 98
	00 00 00	 lea	 rcx, QWORD PTR _Now$4[rsp]
  00108	e8 00 00 00 00	 call	 ?now@steady_clock@chrono@std@@SA?AV?$time_point@Usteady_clock@chrono@std@@V?$duration@_JU?$ratio@$00$0DLJKMKAA@@std@@@23@@23@XZ ; std::chrono::steady_clock::now
; Line 173
  0010d	48 8b 9c 24 98
	00 00 00	 mov	 rbx, QWORD PTR _Now$4[rsp]
  00115	48 b8 ff 5c 1e
	ee ff ff ff 7f	 mov	 rax, 9223372036554775807 ; 7fffffffee1e5cffH
  0011f	48 3b d8	 cmp	 rbx, rax
  00122	7d 09		 jge	 SHORT $LN19@main
; File C:\Program Files\Microsoft Visual Studio\2022\Community\VC\Tools\MSVC\14.44.35207\include\__msvc_chrono.hpp
; Line 151
  00124	48 81 c3 00 a3
	e1 11		 add	 rbx, 300000000		; 11e1a300H
; File C:\Program Files\Microsoft Visual Studio\2022\Community\VC\Tools\MSVC\14.44.35207\include\thread
; Line 175
  0012b	eb 03		 jmp	 SHORT $LN200@main
$LN19@main:
; Line 176
  0012d	48 8b df	 mov	 rbx, rdi
$LN200@main:
  00130	49 bf f3 8c 90
	94 07 fc f4 b2	 mov	 r15, -5551535331153507085 ; b2f4fc0794908cf3H
  0013a	66 0f 1f 44 00
	00		 npad	 6
$LL83@main:
; File C:\Program Files\Microsoft Visual Studio\2022\Community\VC\Tools\MSVC\14.44.35207\include\__msvc_chrono.hpp
; Line 657
  00140	e8 00 00 00 00	 call	 _Query_perf_frequency
  00145	48 8b f8	 mov	 rdi, rax
; Line 658
  00148	e8 00 00 00 00	 call	 _Query_perf_counter
  0014d	48 8b c8	 mov	 rcx, rax
; Line 664
  00150	48 81 ff 80 96
	98 00		 cmp	 rdi, 10000000		; 00989680H
  00157	75 06		 jne	 SHORT $LN87@main
; Line 670
  00159	48 6b c1 64	 imul	 rax, rcx, 100		; 00000064H
  0015d	eb 71		 jmp	 SHORT $LN90@main
$LN87@main:
; Line 671
  0015f	48 81 ff 00 36
	6e 01		 cmp	 rdi, 24000000		; 016e3600H
  00166	75 4a		 jne	 SHORT $LN89@main
; Line 673
  00168	49 8b c7	 mov	 rax, r15
  0016b	48 f7 e9	 imul	 rcx
  0016e	4c 8d 04 11	 lea	 r8, QWORD PTR [rcx+rdx]
  00172	49 c1 f8 18	 sar	 r8, 24
  00176	49 8b c0	 mov	 rax, r8
  00179	48 c1 e8 3f	 shr	 rax, 63			; 0000003fH
  0017d	4c 03 c0	 add	 r8, rax
  00180	49 69 c0 00 36
	6e 01		 imul	 rax, r8, 24000000	; 016e3600H
; Line 674
  00187	48 2b c8	 sub	 rcx, rax
  0018a	48 69 c9 00 ca
	9a 3b		 imul	 rcx, rcx, 1000000000	; 3b9aca00H
  00191	49 8b c7	 mov	 rax, r15
  00194	48 f7 e9	 imul	 rcx
  00197	48 8d 04 11	 lea	 rax, QWORD PTR [rcx+rdx]
  0019b	48 c1 f8 18	 sar	 rax, 24
  0019f	48 8b c8	 mov	 rcx, rax
  001a2	48 c1 e9 3f	 shr	 rcx, 63			; 0000003fH
  001a6	48 03 c1	 add	 rax, rcx
; Line 673
  001a9	49 69 c8 00 ca
	9a 3b		 imul	 rcx, r8, 1000000000	; 3b9aca00H
; Line 675
  001b0	eb 1b		 jmp	 SHORT $LN203@main
$LN89@main:
; Line 683
  001b2	48 99		 cdq
  001b4	48 f7 ff	 idiv	 rdi
  001b7	48 8b c8	 mov	 rcx, rax
  001ba	48 69 c2 00 ca
	9a 3b		 imul	 rax, rdx, 1000000000	; 3b9aca00H
  001c1	48 99		 cdq
  001c3	48 f7 ff	 idiv	 rdi
; Line 682
  001c6	48 69 c9 00 ca
	9a 3b		 imul	 rcx, rcx, 1000000000	; 3b9aca00H
$LN203@main:
; File C:\Program Files\Microsoft Visual Studio\2022\Community\VC\Tools\MSVC\14.44.35207\include\thread
; Line 212
  001cd	48 03 c1	 add	 rax, rcx
$LN90@main:
  001d0	48 3b c3	 cmp	 rax, rbx
  001d3	7d 4a		 jge	 SHORT $LN202@main
; File C:\Program Files\Microsoft Visual Studio\2022\Community\VC\Tools\MSVC\14.44.35207\include\__msvc_chrono.hpp
; Line 221
  001d5	48 8b cb	 mov	 rcx, rbx
  001d8	48 2b c8	 sub	 rcx, rax
; File C:\Program Files\Microsoft Visual Studio\2022\Community\VC\Tools\MSVC\14.44.35207\include\thread
; Line 192
  001db	49 3b cc	 cmp	 rcx, r12
  001de	7e 11		 jle	 SHORT $LN142@main
; Line 193
  001e0	ba 00 5c 26 05	 mov	 edx, 86400000		; 05265c00H
; Line 217
  001e5	8b ca		 mov	 ecx, edx
  001e7	e8 00 00 00 00	 call	 _Thrd_sleep_for
  001ec	e9 4f ff ff ff	 jmp	 $LL83@main
$LN142@main:
; File C:\Program Files\Microsoft Visual Studio\2022\Community\VC\Tools\MSVC\14.44.35207\include\__msvc_chrono.hpp
; Line 447
  001f1	49 8b c5	 mov	 rax, r13
  001f4	48 f7 e9	 imul	 rcx
  001f7	48 c1 fa 12	 sar	 rdx, 18
  001fb	48 8b c2	 mov	 rax, rdx
  001fe	48 c1 e8 3f	 shr	 rax, 63			; 0000003fH
  00202	48 03 d0	 add	 rdx, rax
; Line 442
  00205	48 69 c2 40 42
	0f 00		 imul	 rax, rdx, 1000000	; 000f4240H
; Line 475
  0020c	48 3b c1	 cmp	 rax, rcx
  0020f	7d 02		 jge	 SHORT $LN143@main
; Line 476
  00211	ff c2		 inc	 edx
$LN143@main:
; File C:\Program Files\Microsoft Visual Studio\2022\Community\VC\Tools\MSVC\14.44.35207\include\thread
; Line 217
  00213	8b ca		 mov	 ecx, edx
  00215	e8 00 00 00 00	 call	 _Thrd_sleep_for
  0021a	e9 21 ff ff ff	 jmp	 $LL83@main
$LN202@main:
; File C:\VS_projects\Compilation\FightClub\Main.cpp
; Line 22
  0021f	44 8b bc 24 90
	00 00 00	 mov	 r15d, DWORD PTR roundNum$1$[rsp]
  00227	e9 36 fe ff ff	 jmp	 $LN204@main
$LN190@main:
; Line 24
  0022c	48 8d 15 00 00
	00 00		 lea	 rdx, OFFSET FLAT:??$endl@DU?$char_traits@D@std@@@std@@YAAEAV?$basic_ostream@DU?$char_traits@D@std@@@0@AEAV10@@Z ; std::endl<char,std::char_traits<char> >
  00233	48 8b 0d 00 00
	00 00		 mov	 rcx, QWORD PTR __imp_?cout@std@@3V?$basic_ostream@DU?$char_traits@D@std@@@1@A
  0023a	ff 15 00 00 00
	00		 call	 QWORD PTR __imp_??6?$basic_ostream@DU?$char_traits@D@std@@@std@@QEAAAEAV01@P6AAEAV01@AEAV01@@Z@Z
; Line 25
  00240	48 8d 15 00 00
	00 00		 lea	 rdx, OFFSET FLAT:??_C@_0CO@OOAMJGKN@?$DN?$DN?$DN?$DN?$DN?$DN?$DN?$DN?$DN?$DN?$DN?$DN?$DN?$DN?$DN?$DN?$DN?5GAME?5OVER?5?$DN?$DN?$DN@
  00247	48 8b 0d 00 00
	00 00		 mov	 rcx, QWORD PTR __imp_?cout@std@@3V?$basic_ostream@DU?$char_traits@D@std@@@1@A
  0024e	e8 00 00 00 00	 call	 ??$?6U?$char_traits@D@std@@@std@@YAAEAV?$basic_ostream@DU?$char_traits@D@std@@@0@AEAV10@PEBD@Z ; std::operator<<<std::char_traits<char> >
  00253	48 8d 15 00 00
	00 00		 lea	 rdx, OFFSET FLAT:??$endl@DU?$char_traits@D@std@@@std@@YAAEAV?$basic_ostream@DU?$char_traits@D@std@@@0@AEAV10@@Z ; std::endl<char,std::char_traits<char> >
  0025a	48 8b c8	 mov	 rcx, rax
  0025d	ff 15 00 00 00
	00		 call	 QWORD PTR __imp_??6?$basic_ostream@DU?$char_traits@D@std@@@std@@QEAAAEAV01@P6AAEAV01@AEAV01@@Z@Z
; Line 26
  00263	48 8d 15 00 00
	00 00		 lea	 rdx, OFFSET FLAT:??_C@_0BB@MCNOPMIP@Friendship?5wins?$CB@
  0026a	48 8b 0d 00 00
	00 00		 mov	 rcx, QWORD PTR __imp_?cout@std@@3V?$basic_ostream@DU?$char_traits@D@std@@@1@A
; Line 27
  00271	e9 88 00 00 00	 jmp	 $LN205@main
$LN191@main:
; Line 33
  00276	ff 15 00 00 00
	00		 call	 QWORD PTR __imp_??6?$basic_ostream@DU?$char_traits@D@std@@@std@@QEAAAEAV01@P6AAEAV01@AEAV01@@Z@Z
; Line 34
  0027c	48 8d 15 00 00
	00 00		 lea	 rdx, OFFSET FLAT:??_C@_0CO@OOAMJGKN@?$DN?$DN?$DN?$DN?$DN?$DN?$DN?$DN?$DN?$DN?$DN?$DN?$DN?$DN?$DN?$DN?$DN?5GAME?5OVER?5?$DN?$DN?$DN@
  00283	48 8b 0d 00 00
	00 00		 mov	 rcx, QWORD PTR __imp_?cout@std@@3V?$basic_ostream@DU?$char_traits@D@std@@@1@A
  0028a	e8 00 00 00 00	 call	 ??$?6U?$char_traits@D@std@@@std@@YAAEAV?$basic_ostream@DU?$char_traits@D@std@@@0@AEAV10@PEBD@Z ; std::operator<<<std::char_traits<char> >
  0028f	48 8d 15 00 00
	00 00		 lea	 rdx, OFFSET FLAT:??$endl@DU?$char_traits@D@std@@@std@@YAAEAV?$basic_ostream@DU?$char_traits@D@std@@@0@AEAV10@@Z ; std::endl<char,std::char_traits<char> >
  00296	48 8b c8	 mov	 rcx, rax
  00299	ff 15 00 00 00
	00		 call	 QWORD PTR __imp_??6?$basic_ostream@DU?$char_traits@D@std@@@std@@QEAAAEAV01@P6AAEAV01@AEAV01@@Z@Z
; Line 35
  0029f	48 8b 1d 00 00
	00 00		 mov	 rbx, QWORD PTR __imp_?cout@std@@3V?$basic_ostream@DU?$char_traits@D@std@@@1@A
  002a6	48 8b ce	 mov	 rcx, rsi
  002a9	ff 15 00 00 00
	00		 call	 QWORD PTR __imp_?name@Character@@QEBAPEBDXZ
  002af	48 8b d0	 mov	 rdx, rax
  002b2	48 8b cb	 mov	 rcx, rbx
  002b5	e8 00 00 00 00	 call	 ??$?6U?$char_traits@D@std@@@std@@YAAEAV?$basic_ostream@DU?$char_traits@D@std@@@0@AEAV10@PEBD@Z ; std::operator<<<std::char_traits<char> >
  002ba	48 8b c8	 mov	 rcx, rax
  002bd	48 8d 15 00 00
	00 00		 lea	 rdx, OFFSET FLAT:??_C@_0O@CICABFFP@?5is?5dead?4?4?4?4?4@
  002c4	e8 00 00 00 00	 call	 ??$?6U?$char_traits@D@std@@@std@@YAAEAV?$basic_ostream@DU?$char_traits@D@std@@@0@AEAV10@PEBD@Z ; std::operator<<<std::char_traits<char> >
  002c9	48 8d 15 00 00
	00 00		 lea	 rdx, OFFSET FLAT:??$endl@DU?$char_traits@D@std@@@std@@YAAEAV?$basic_ostream@DU?$char_traits@D@std@@@0@AEAV10@@Z ; std::endl<char,std::char_traits<char> >
  002d0	48 8b c8	 mov	 rcx, rax
  002d3	ff 15 00 00 00
	00		 call	 QWORD PTR __imp_??6?$basic_ostream@DU?$char_traits@D@std@@@std@@QEAAAEAV01@P6AAEAV01@AEAV01@@Z@Z
; Line 36
  002d9	48 8b 1d 00 00
	00 00		 mov	 rbx, QWORD PTR __imp_?cout@std@@3V?$basic_ostream@DU?$char_traits@D@std@@@1@A
  002e0	48 8b cd	 mov	 rcx, rbp
  002e3	ff 15 00 00 00
	00		 call	 QWORD PTR __imp_?name@Character@@QEBAPEBDXZ
  002e9	48 8b d0	 mov	 rdx, rax
  002ec	48 8b cb	 mov	 rcx, rbx
  002ef	e8 00 00 00 00	 call	 ??$?6U?$char_traits@D@std@@@std@@YAAEAV?$basic_ostream@DU?$char_traits@D@std@@@0@AEAV10@PEBD@Z ; std::operator<<<std::char_traits<char> >
  002f4	48 8b c8	 mov	 rcx, rax
  002f7	48 8d 15 00 00
	00 00		 lea	 rdx, OFFSET FLAT:??_C@_08CKOPNBH@?5wins?$CB?$CB?$CB@
$LN205@main:
; Line 46
  002fe	e8 00 00 00 00	 call	 ??$?6U?$char_traits@D@std@@@std@@YAAEAV?$basic_ostream@DU?$char_traits@D@std@@@0@AEAV10@PEBD@Z ; std::operator<<<std::char_traits<char> >
  00303	48 8d 15 00 00
	00 00		 lea	 rdx, OFFSET FLAT:??$endl@DU?$char_traits@D@std@@@std@@YAAEAV?$basic_ostream@DU?$char_traits@D@std@@@0@AEAV10@@Z ; std::endl<char,std::char_traits<char> >
  0030a	48 8b c8	 mov	 rcx, rax
  0030d	ff 15 00 00 00
	00		 call	 QWORD PTR __imp_??6?$basic_ostream@DU?$char_traits@D@std@@@std@@QEAAAEAV01@P6AAEAV01@AEAV01@@Z@Z
  00313	48 8b 0d 00 00
	00 00		 mov	 rcx, QWORD PTR __imp_?cin@std@@3V?$basic_istream@DU?$char_traits@D@std@@@1@A
  0031a	ff 15 00 00 00
	00		 call	 QWORD PTR __imp_?get@?$basic_istream@DU?$char_traits@D@std@@@std@@QEAAHXZ
  00320	90		 npad	 1
; Line 48
  00321	48 8d 4c 24 20	 lea	 rcx, QWORD PTR hero2$[rsp]
  00326	ff 15 00 00 00
	00		 call	 QWORD PTR __imp_??1Character@@QEAA@XZ
  0032c	90		 npad	 1
  0032d	48 8d 4c 24 38	 lea	 rcx, QWORD PTR hero1$[rsp]
  00332	ff 15 00 00 00
	00		 call	 QWORD PTR __imp_??1Character@@QEAA@XZ
  00338	33 c0		 xor	 eax, eax
; Line 49
  0033a	48 8b 9c 24 a0
	00 00 00	 mov	 rbx, QWORD PTR [rsp+160]
  00342	48 83 c4 50	 add	 rsp, 80			; 00000050H
  00346	41 5f		 pop	 r15
  00348	41 5e		 pop	 r14
  0034a	41 5d		 pop	 r13
  0034c	41 5c		 pop	 r12
  0034e	5f		 pop	 rdi
  0034f	5e		 pop	 rsi
  00350	5d		 pop	 rbp
  00351	c3		 ret	 0
main	ENDP
_TEXT	ENDS
; Function compile flags: /Ogtpy
;	COMDAT text$x
text$x	SEGMENT
hero2$ = 32
hero1$ = 56
roundNum$1$ = 144
_Now$4 = 152
main$dtor$0 PROC
  00000	48 8d 8a 38 00
	00 00		 lea	 rcx, QWORD PTR hero1$[rdx]
  00007	48 ff 25 00 00
	00 00		 rex_jmp QWORD PTR __imp_??1Character@@QEAA@XZ
main$dtor$0 ENDP
text$x	ENDS
; Function compile flags: /Ogtpy
;	COMDAT text$x
text$x	SEGMENT
hero2$ = 32
hero1$ = 56
roundNum$1$ = 144
_Now$4 = 152
main$dtor$1 PROC
  00000	48 8d 8a 20 00
	00 00		 lea	 rcx, QWORD PTR hero2$[rdx]
  00007	48 ff 25 00 00
	00 00		 rex_jmp QWORD PTR __imp_??1Character@@QEAA@XZ
main$dtor$1 ENDP
text$x	ENDS
; Function compile flags: /Ogtpy
;	COMDAT ?now@steady_clock@chrono@std@@SA?AV?$time_point@Usteady_clock@chrono@std@@V?$duration@_JU?$ratio@$00$0DLJKMKAA@@std@@@23@@23@XZ
_TEXT	SEGMENT
__$ReturnUdt$ = 48
?now@steady_clock@chrono@std@@SA?AV?$time_point@Usteady_clock@chrono@std@@V?$duration@_JU?$ratio@$00$0DLJKMKAA@@std@@@23@@23@XZ PROC ; std::chrono::steady_clock::now, COMDAT
; File C:\Program Files\Microsoft Visual Studio\2022\Community\VC\Tools\MSVC\14.44.35207\include\__msvc_chrono.hpp
; Line 656
$LN32:
  00000	48 89 5c 24 08	 mov	 QWORD PTR [rsp+8], rbx
  00005	57		 push	 rdi
  00006	48 83 ec 20	 sub	 rsp, 32			; 00000020H
  0000a	48 8b d9	 mov	 rbx, rcx
; Line 657
  0000d	e8 00 00 00 00	 call	 _Query_perf_frequency
  00012	48 8b f8	 mov	 rdi, rax
; Line 658
  00015	e8 00 00 00 00	 call	 _Query_perf_counter
  0001a	4c 8b c8	 mov	 r9, rax
; Line 664
  0001d	48 81 ff 80 96
	98 00		 cmp	 rdi, 10000000		; 00989680H
  00024	75 15		 jne	 SHORT $LN2@now
; Line 670
  00026	49 6b c1 64	 imul	 rax, r9, 100		; 00000064H
; Line 686
  0002a	48 89 03	 mov	 QWORD PTR [rbx], rax
  0002d	48 8b c3	 mov	 rax, rbx
  00030	48 8b 5c 24 30	 mov	 rbx, QWORD PTR [rsp+48]
  00035	48 83 c4 20	 add	 rsp, 32			; 00000020H
  00039	5f		 pop	 rdi
  0003a	c3		 ret	 0
$LN2@now:
; Line 671
  0003b	48 81 ff 00 36
	6e 01		 cmp	 rdi, 24000000		; 016e3600H
  00042	75 65		 jne	 SHORT $LN4@now
; Line 673
  00044	49 ba f3 8c 90
	94 07 fc f4 b2	 mov	 r10, -5551535331153507085 ; b2f4fc0794908cf3H
  0004e	49 8b c2	 mov	 rax, r10
  00051	49 f7 e9	 imul	 r9
; Line 674
  00054	49 8b c2	 mov	 rax, r10
  00057	4d 8d 04 11	 lea	 r8, QWORD PTR [r9+rdx]
  0005b	49 c1 f8 18	 sar	 r8, 24
  0005f	49 8b c8	 mov	 rcx, r8
  00062	48 c1 e9 3f	 shr	 rcx, 63			; 0000003fH
  00066	4c 03 c1	 add	 r8, rcx
  00069	49 69 c8 00 36
	6e 01		 imul	 rcx, r8, 24000000	; 016e3600H
  00070	4c 2b c9	 sub	 r9, rcx
  00073	49 69 c9 00 ca
	9a 3b		 imul	 rcx, r9, 1000000000	; 3b9aca00H
  0007a	48 f7 e9	 imul	 rcx
  0007d	48 03 d1	 add	 rdx, rcx
  00080	48 c1 fa 18	 sar	 rdx, 24
  00084	48 8b c2	 mov	 rax, rdx
  00087	48 c1 e8 3f	 shr	 rax, 63			; 0000003fH
  0008b	48 03 d0	 add	 rdx, rax
  0008e	49 69 c0 00 ca
	9a 3b		 imul	 rax, r8, 1000000000	; 3b9aca00H
; Line 675
  00095	48 03 d0	 add	 rdx, rax
; Line 686
  00098	48 8b c3	 mov	 rax, rbx
; Line 213
  0009b	48 89 13	 mov	 QWORD PTR [rbx], rdx
; Line 686
  0009e	48 8b 5c 24 30	 mov	 rbx, QWORD PTR [rsp+48]
  000a3	48 83 c4 20	 add	 rsp, 32			; 00000020H
  000a7	5f		 pop	 rdi
  000a8	c3		 ret	 0
$LN4@now:
; Line 683
  000a9	48 99		 cdq
  000ab	48 f7 ff	 idiv	 rdi
  000ae	48 8b c8	 mov	 rcx, rax
  000b1	48 69 c2 00 ca
	9a 3b		 imul	 rax, rdx, 1000000000	; 3b9aca00H
  000b8	48 69 c9 00 ca
	9a 3b		 imul	 rcx, rcx, 1000000000	; 3b9aca00H
  000bf	48 99		 cdq
  000c1	48 f7 ff	 idiv	 rdi
; Line 684
  000c4	48 03 c1	 add	 rax, rcx
; Line 686
  000c7	48 89 03	 mov	 QWORD PTR [rbx], rax
  000ca	48 8b c3	 mov	 rax, rbx
  000cd	48 8b 5c 24 30	 mov	 rbx, QWORD PTR [rsp+48]
  000d2	48 83 c4 20	 add	 rsp, 32			; 00000020H
  000d6	5f		 pop	 rdi
  000d7	c3		 ret	 0
?now@steady_clock@chrono@std@@SA?AV?$time_point@Usteady_clock@chrono@std@@V?$duration@_JU?$ratio@$00$0DLJKMKAA@@std@@@23@@23@XZ ENDP ; std::chrono::steady_clock::now
_TEXT	ENDS
END
